EXPORTS
 "_nSGMM_BBP_c_from_atY_cpp"
 "_nSGMM_BBP_in_equilibrium_YaT_cpp"
 "_nSGMM_BBP_T_from_atY_plain_cpp"
 "_nSGMM_BBP_T_from_tYc_cpp"
 "_nSGMM_Ccomponents"
 "_nSGMM_component_counts"
 "_nSGMM_consumption_weights_cpp"
 "_nSGMM_equilibrate_cpp_fast5"
 "_nSGMM_equilibrate_cpp_fast7_smarter"
 "_nSGMM_get_BBP_BR_analytically_cpp_inline"
 "_nSGMM_meannanrm"
 "_nSGMM_mynegutility_cpp"
 "_nSGMM_mynegutility_cpp_consumption"
 "_nSGMM_simulate_BBP_cpp"
 "_nSGMM_utlity_cppvec"
 "_Z11stack_tracePKci"
 "_Z13get_last_callv"
 "_Z14make_conditionRKSsP7SEXPRECS2_S2_"
 "_Z19string_to_try_errorRKSs"
 "_Z20rcpp_get_stack_tracev"
 "_Z20rcpp_set_stack_traceP7SEXPREC"
 "_Z21get_exception_classesRKSs"
 "_Z24exception_to_r_conditionRKSt9exception"
 "_Z29rcpp_exception_to_r_conditionRKN4Rcpp9exceptionE"
 "_Z31exception_to_condition_templateIN4Rcpp9exceptionEEP7SEXPRECRKT_b"
 "_Z31exception_to_condition_templateISt9exceptionEP7SEXPRECRKT_b"
 "_Z7dataptrP7SEXPREC"
 "_Z8demangleRKSs"
 "_ZGVN4arma5DatumIdE3nanE"
 "_ZGVN4arma5DatumIiE3nanE"
 "_ZGVZ11stack_tracePKciE3fun"
 "_ZGVZ20rcpp_get_stack_tracevE3fun"
 "_ZGVZ20rcpp_set_stack_traceP7SEXPRECE3fun"
 "_ZGVZ7dataptrP7SEXPRECE3fun"
 "_ZGVZ8demangleRKSsE3fun"
 "_ZGVZN4Rcpp8internal12exitRNGScopeEvE3fun"
 "_ZGVZN4Rcpp8internal13enterRNGScopeEvE3fun"
 "_ZN10tinyformat10FormatListC2EPNS_6detail9FormatArgEi"
 "_ZN10tinyformat11formatValueIiEEvRSoPKcS3_iRKT_"
 "_ZN10tinyformat11formatValueIPKcEEvRSoS2_S2_iRKT_"
 "_ZN10tinyformat14makeFormatListIIEEENS_6detail11FormatListNIXstDpT_EEEDpRKS3_"
 "_ZN10tinyformat14makeFormatListIIiEEENS_6detail11FormatListNIXstDpT_EEEDpRKS3_"
 "_ZN10tinyformat14makeFormatListIIPKcS2_EEENS_6detail11FormatListNIXstDpT_EEEDpRKS5_"
 "_ZN10tinyformat6detail10formatImplERSoPKcPKNS0_9FormatArgEi"
 "_ZN10tinyformat6detail11FormatListNILi0EEC1Ev"
 "_ZN10tinyformat6detail11FormatListNILi1EEC1IIiEEEDpRKT_"
 "_ZN10tinyformat6detail11FormatListNILi2EEC1IIPKcS5_EEEDpRKT_"
 "_ZN10tinyformat6detail12convertToIntIiLb1EE6invokeERKi"
 "_ZN10tinyformat6detail12convertToIntIPKcLb0EE6invokeERKS3_"
 "_ZN10tinyformat6detail15formatTruncatedERSoPKci"
 "_ZN10tinyformat6detail15formatTruncatedIiEEvRSoRKT_i"
 "_ZN10tinyformat6detail17formatValueAsTypeIicLb1EE6invokeERSoRKi"
 "_ZN10tinyformat6detail17formatValueAsTypeIPKcPKvLb1EE6invokeERSoRKS3_"
 "_ZN10tinyformat6detail18parseIntAndAdvanceERPKc"
 "_ZN10tinyformat6detail21streamStateFromFormatERSoRbRiPKcPKNS0_9FormatArgES3_i"
 "_ZN10tinyformat6detail24printFormatStringLiteralERSoPKc"
 "_ZN10tinyformat6detail9FormatArg10formatImplIiEEvRSoPKcS5_iPKv"
 "_ZN10tinyformat6detail9FormatArg10formatImplIPKcEEvRSoS4_S4_iPKv"
 "_ZN10tinyformat6detail9FormatArg9toIntImplIiEEiPKv"
 "_ZN10tinyformat6detail9FormatArg9toIntImplIPKcEEiPKv"
 "_ZN10tinyformat6detail9FormatArgC1IiEERKT_"
 "_ZN10tinyformat6detail9FormatArgC1IPKcEERKT_"
 "_ZN10tinyformat6formatIIEEESsPKcDpRKT_"
 "_ZN10tinyformat6formatIIEEEvRSoPKcDpRKT_"
 "_ZN10tinyformat6formatIIiEEESsPKcDpRKT_"
 "_ZN10tinyformat6formatIIiEEEvRSoPKcDpRKT_"
 "_ZN10tinyformat6formatIIPKcS2_EEESsS2_DpRKT_"
 "_ZN10tinyformat6formatIIPKcS2_EEEvRSoS2_DpRKT_"
 "_ZN10tinyformat7vformatERSoPKcRKNS_10FormatListE"
 "_ZN4arma10arma_checkIA53_cEEvbRKT_"
 "_ZN4arma10arma_checkIPKcEEvbRKT_"
 "_ZN4arma10solve_opts12opts_no_bandC1Ev"
 "_ZN4arma10solve_opts13opts_no_sympdC1Ev"
 "_ZN4arma10solve_opts14opts_no_approxC1Ev"
 "_ZN4arma10solve_opts15opts_allow_uglyC1Ev"
 "_ZN4arma10solve_opts16opts_equilibrateC1Ev"
 "_ZN4arma10solve_opts17opts_likely_sympdC1Ev"
 "_ZN4arma10solve_opts4optsC2Ej"
 "_ZN4arma10solve_opts9opts_fastC1Ev"
 "_ZN4arma10solve_opts9opts_noneC1Ev"
 "_ZN4arma10solve_opts9opts_trilC1Ev"
 "_ZN4arma10solve_opts9opts_triuC1Ev"
 "_ZN4arma13Base_eval_MatIdNS_3MatIdEEEC2Ev"
 "_ZN4arma13Base_eval_MatIjNS_3MatIjEEEC2Ev"
 "_ZN4arma13Base_extra_noIjNS_3MatIjEEEC2Ev"
 "_ZN4arma13gmm_dist_euclC1Ev"
 "_ZN4arma13gmm_dist_mahaC1Ev"
 "_ZN4arma13gmm_dist_modeC2Ej"
 "_ZN4arma13gmm_dist_probC1Ev"
 "_ZN4arma13gmm_seed_modeC2Ej"
 "_ZN4arma14Base_extra_yesIdNS_3MatIdEEEC2Ev"
 "_ZN4arma15get_cerr_streamEv"
 "_ZN4arma16arma_cerr_streamIcEERSoPSo"
 "_ZN4arma18Base_trans_defaultINS_3MatIdEEEC2Ev"
 "_ZN4arma18Base_trans_defaultINS_3MatIjEEEC2Ev"
 "_ZN4arma20arma_check_bad_allocIA39_cEEvbRKT_"
 "_ZN4arma22gmm_seed_keep_existingC1Ev"
 "_ZN4arma22gmm_seed_random_spreadC1Ev"
 "_ZN4arma22gmm_seed_random_subsetC1Ev"
 "_ZN4arma22gmm_seed_static_spreadC1Ev"
 "_ZN4arma22gmm_seed_static_subsetC1Ev"
 "_ZN4arma3ColIdEC1Ej"
 "_ZN4arma3ColIdEC1EPdjbb"
 "_ZN4arma3ColIdED1Ev"
 "_ZN4arma3ColIjEC1Ej"
 "_ZN4arma3ColIjED1Ev"
 "_ZN4arma3MatIdE9init_coldEv"
 "_ZN4arma3MatIdEC1Ejj"
 "_ZN4arma3MatIdEC1EPdjjbb"
 "_ZN4arma3MatIdEC1ERKS1_"
 "_ZN4arma3MatIdEC2EPdjjbb"
 "_ZN4arma3MatIdEC2ERKNS_18arma_vec_indicatorEjjt"
 "_ZN4arma3MatIdED1Ev"
 "_ZN4arma3MatIdED2Ev"
 "_ZN4arma3MatIjE9init_coldEv"
 "_ZN4arma3MatIjEC2ERKNS_18arma_vec_indicatorEjjt"
 "_ZN4arma3MatIjED2Ev"
 "_ZN4arma3RowIdEC1EPdjbb"
 "_ZN4arma3RowIdED1Ev"
 "_ZN4arma4BaseIdNS_3MatIdEEEC2Ev"
 "_ZN4arma4BaseIjNS_3MatIjEEEC2Ev"
 "_ZN4arma4fill10fill_classINS0_10fill_randnEEC1Ev"
 "_ZN4arma4fill10fill_classINS0_10fill_randuEEC1Ev"
 "_ZN4arma4fill10fill_classINS0_10fill_zerosEEC1Ev"
 "_ZN4arma4fill10fill_classINS0_8fill_eyeEEC1Ev"
 "_ZN4arma4fill10fill_classINS0_9fill_noneEEC1Ev"
 "_ZN4arma4fill10fill_classINS0_9fill_onesEEC1Ev"
 "_ZN4arma4priv12Datum_helper3nanIdEENS_14arma_real_onlyIT_E6resultEPS6_"
 "_ZN4arma4priv12Datum_helper3nanIiEENS_18arma_integral_onlyIT_E6resultEPS6_"
 "_ZN4arma5DatumIdE3nanE"
 "_ZN4arma5DatumIiE3nanE"
 "_ZN4arma6memory7acquireIdEEPT_j"
 "_ZN4arma6memory7acquireIjEEPT_j"
 "_ZN4arma8arrayops10copy_smallIdEEvPT_PKS2_j"
 "_ZN4arma9hdf5_opts10opts_transC1Ev"
 "_ZN4arma9hdf5_opts11opts_appendC1Ev"
 "_ZN4arma9hdf5_opts12opts_replaceC1Ev"
 "_ZN4arma9hdf5_opts4optsC2Ej"
 "_ZN4arma9hdf5_opts9opts_noneC1Ev"
 "_ZN4Rcpp10eval_errorC1ERKSs"
 "_ZN4Rcpp10eval_errorD0Ev"
 "_ZN4Rcpp10eval_errorD1Ev"
 "_ZN4Rcpp10MatrixBaseILi14ELb1ENS_6MatrixILi14ENS_15PreserveStorageEEEEC2Ev"
 "_ZN4Rcpp10RstreambufILb0EE4syncEv"
 "_ZN4Rcpp10RstreambufILb0EE6xsputnEPKcx"
 "_ZN4Rcpp10RstreambufILb0EE8overflowEi"
 "_ZN4Rcpp10RstreambufILb0EEC1Ev"
 "_ZN4Rcpp10RstreambufILb0EED0Ev"
 "_ZN4Rcpp10RstreambufILb0EED1Ev"
 "_ZN4Rcpp10RstreambufILb1EE4syncEv"
 "_ZN4Rcpp10RstreambufILb1EE6xsputnEPKcx"
 "_ZN4Rcpp10RstreambufILb1EE8overflowEi"
 "_ZN4Rcpp10RstreambufILb1EEC1Ev"
 "_ZN4Rcpp10RstreambufILb1EED0Ev"
 "_ZN4Rcpp10RstreambufILb1EED1Ev"
 "_ZN4Rcpp10VectorBaseILi14ELb1ENS_6VectorILi14ENS_15PreserveStorageEEEEC2Ev"
 "_ZN4Rcpp12GenericProxyINS_20AttributeProxyPolicyINS_12RObject_ImplINS_15PreserveStorageEEEE14AttributeProxyEEC2Ev"
 "_ZN4Rcpp12not_a_matrixC1Ev"
 "_ZN4Rcpp12not_a_matrixD0Ev"
 "_ZN4Rcpp12not_a_matrixD1Ev"
 "_ZN4Rcpp12Rcpp_protectEP7SEXPREC"
 "_ZN4Rcpp12RObject_ImplINS_15PreserveStorageEE6updateEP7SEXPREC"
 "_ZN4Rcpp12RObject_ImplINS_15PreserveStorageEEaSIP7SEXPRECEERS2_RKT_"
 "_ZN4Rcpp12RObject_ImplINS_15PreserveStorageEEC1EP7SEXPREC"
 "_ZN4Rcpp12RObject_ImplINS_15PreserveStorageEEC1Ev"
 "_ZN4Rcpp12RObject_ImplINS_15PreserveStorageEED1Ev"
 "_ZN4Rcpp13RcppArmadillo9arma_wrapIN4arma3ColIdEEEEP7SEXPRECRKT_RKNS_9DimensionE"
 "_ZN4Rcpp13RcppArmadillo9arma_wrapIN4arma3MatIdEEEEP7SEXPRECRKT_RKNS_9DimensionE"
 "_ZN4Rcpp14InputParameterIdEC1EP7SEXPREC"
 "_ZN4Rcpp14InputParameterIdEcvdEv"
 "_ZN4Rcpp14InputParameterIiEC1EP7SEXPREC"
 "_ZN4Rcpp14InputParameterIiEcviEv"
 "_ZN4Rcpp14InputParameterIjEC1EP7SEXPREC"
 "_ZN4Rcpp14InputParameterIjEcvjEv"
 "_ZN4Rcpp14InputParameterIN4arma3ColIdEEEC1EP7SEXPREC"
 "_ZN4Rcpp14InputParameterIN4arma3ColIdEEEcvS3_Ev"
 "_ZN4Rcpp14InputParameterIN4arma3MatIdEEEC1EP7SEXPREC"
 "_ZN4Rcpp14InputParameterIN4arma3MatIdEEEcvS3_Ev"
 "_ZN4Rcpp14not_compatibleC1IIiEEEPKcDpOT_"
 "_ZN4Rcpp14not_compatibleC1IIPKcS3_EEES3_DpOT_"
 "_ZN4Rcpp14not_compatibleD0Ev"
 "_ZN4Rcpp14not_compatibleD1Ev"
 "_ZN4Rcpp14Rcpp_fast_evalEP7SEXPRECS1_"
 "_ZN4Rcpp14Rcpp_unprotectEi"
 "_ZN4Rcpp14RObjectMethodsINS_12RObject_ImplINS_15PreserveStorageEEEEC2Ev"
 "_ZN4Rcpp14RObjectMethodsINS_6VectorILi14ENS_15PreserveStorageEEEEC2Ev"
 "_ZN4Rcpp15PreserveStorageINS_12RObject_ImplIS0_EEE5set__EP7SEXPREC"
 "_ZN4Rcpp15PreserveStorageINS_12RObject_ImplIS0_EEEC2Ev"
 "_ZN4Rcpp15PreserveStorageINS_12RObject_ImplIS0_EEED2Ev"
 "_ZN4Rcpp15PreserveStorageINS_6VectorILi14ES0_EEE5set__EP7SEXPREC"
 "_ZN4Rcpp15PreserveStorageINS_6VectorILi14ES0_EEEC2Ev"
 "_ZN4Rcpp15PreserveStorageINS_6VectorILi14ES0_EEED2Ev"
 "_ZN4Rcpp15SlotProxyPolicyINS_12RObject_ImplINS_15PreserveStorageEEEEC2Ev"
 "_ZN4Rcpp15SlotProxyPolicyINS_6VectorILi14ENS_15PreserveStorageEEEEC2Ev"
 "_ZN4Rcpp16NamesProxyPolicyINS_6VectorILi14ENS_15PreserveStorageEEEEC2Ev"
 "_ZN4Rcpp16wrap_extra_stepsIdEEP7SEXPRECS2_"
 "_ZN4Rcpp16wrap_extra_stepsIiEEP7SEXPRECS2_"
 "_ZN4Rcpp18Rcpp_ReleaseObjectEP7SEXPREC"
 "_ZN4Rcpp18Rcpp_ReplaceObjectEP7SEXPRECS1_"
 "_ZN4Rcpp19ConstInputParameterIN4arma3MatIdEEEC1EP7SEXPREC"
 "_ZN4Rcpp19ConstInputParameterIN4arma3MatIdEEED1Ev"
 "_ZN4Rcpp19Rcpp_PreserveObjectEP7SEXPREC"
 "_ZN4Rcpp20AttributeProxyPolicyINS_12RObject_ImplINS_15PreserveStorageEEEE14AttributeProxy3setEP7SEXPREC"
 "_ZN4Rcpp20AttributeProxyPolicyINS_12RObject_ImplINS_15PreserveStorageEEEE14AttributeProxyaSINS_9DimensionEEERS5_RKT_"
 "_ZN4Rcpp20AttributeProxyPolicyINS_12RObject_ImplINS_15PreserveStorageEEEE14AttributeProxyC1ERS3_RKSs"
 "_ZN4Rcpp20AttributeProxyPolicyINS_12RObject_ImplINS_15PreserveStorageEEEE4attrERKSs"
 "_ZN4Rcpp20AttributeProxyPolicyINS_12RObject_ImplINS_15PreserveStorageEEEEC2Ev"
 "_ZN4Rcpp20AttributeProxyPolicyINS_6VectorILi14ENS_15PreserveStorageEEEEC2Ev"
 "_ZN4Rcpp22ArmaMat_InputParameterIdN4arma3MatIdEEKS3_NS_6traits17integral_constantIbLb0EEEEC2EP7SEXPREC"
 "_ZN4Rcpp22ArmaMat_InputParameterIdN4arma3MatIdEEKS3_NS_6traits17integral_constantIbLb0EEEEcvS4_Ev"
 "_ZN4Rcpp22ArmaMat_InputParameterIdN4arma3MatIdEEKS3_NS_6traits17integral_constantIbLb0EEEED2Ev"
 "_ZN4Rcpp22ArmaMat_InputParameterIdN4arma3MatIdEERKS3_NS_6traits17integral_constantIbLb0EEEEC2EP7SEXPREC"
 "_ZN4Rcpp22ArmaMat_InputParameterIdN4arma3MatIdEERKS3_NS_6traits17integral_constantIbLb0EEEEcvS5_Ev"
 "_ZN4Rcpp22ArmaMat_InputParameterIdN4arma3MatIdEERKS3_NS_6traits17integral_constantIbLb0EEEED2Ev"
 "_ZN4Rcpp22ArmaMat_InputParameterIdN4arma3MatIdEERS3_NS_6traits17integral_constantIbLb0EEEEC2EP7SEXPREC"
 "_ZN4Rcpp22ArmaMat_InputParameterIdN4arma3MatIdEERS3_NS_6traits17integral_constantIbLb0EEEEcvS4_Ev"
 "_ZN4Rcpp22ArmaMat_InputParameterIdN4arma3MatIdEERS3_NS_6traits17integral_constantIbLb0EEEED2Ev"
 "_ZN4Rcpp22ArmaVec_InputParameterIdN4arma3ColIdEERKS3_NS_6traits17integral_constantIbLb0EEEEC2EP7SEXPREC"
 "_ZN4Rcpp22ArmaVec_InputParameterIdN4arma3ColIdEERKS3_NS_6traits17integral_constantIbLb0EEEEcvS5_Ev"
 "_ZN4Rcpp22ArmaVec_InputParameterIdN4arma3ColIdEERKS3_NS_6traits17integral_constantIbLb0EEEED2Ev"
 "_ZN4Rcpp22ArmaVec_InputParameterIdN4arma3ColIdEERS3_NS_6traits17integral_constantIbLb0EEEEC2EP7SEXPREC"
 "_ZN4Rcpp22ArmaVec_InputParameterIdN4arma3ColIdEERS3_NS_6traits17integral_constantIbLb0EEEEcvS4_Ev"
 "_ZN4Rcpp22ArmaVec_InputParameterIdN4arma3ColIdEERS3_NS_6traits17integral_constantIbLb0EEEED2Ev"
 "_ZN4Rcpp22ArmaVec_InputParameterIdN4arma3RowIdEERKS3_NS_6traits17integral_constantIbLb0EEEEC2EP7SEXPREC"
 "_ZN4Rcpp22ArmaVec_InputParameterIdN4arma3RowIdEERKS3_NS_6traits17integral_constantIbLb0EEEEcvS5_Ev"
 "_ZN4Rcpp22ArmaVec_InputParameterIdN4arma3RowIdEERKS3_NS_6traits17integral_constantIbLb0EEEED2Ev"
 "_ZN4Rcpp22ArmaVec_InputParameterIjN4arma3ColIjEERKS3_NS_6traits17integral_constantIbLb1EEEEC2EP7SEXPREC"
 "_ZN4Rcpp22ArmaVec_InputParameterIjN4arma3ColIjEERKS3_NS_6traits17integral_constantIbLb1EEEEcvS5_Ev"
 "_ZN4Rcpp22ArmaVec_InputParameterIjN4arma3ColIjEERKS3_NS_6traits17integral_constantIbLb1EEEED2Ev"
 "_ZN4Rcpp22ArmaVec_InputParameterIjN4arma3ColIjEERS3_NS_6traits17integral_constantIbLb1EEEEC2EP7SEXPREC"
 "_ZN4Rcpp22ArmaVec_InputParameterIjN4arma3ColIjEERS3_NS_6traits17integral_constantIbLb1EEEEcvS4_Ev"
 "_ZN4Rcpp22ArmaVec_InputParameterIjN4arma3ColIjEERS3_NS_6traits17integral_constantIbLb1EEEED2Ev"
 "_ZN4Rcpp23ReferenceInputParameterIN4arma3ColIdEEEC1EP7SEXPREC"
 "_ZN4Rcpp23ReferenceInputParameterIN4arma3ColIdEEED1Ev"
 "_ZN4Rcpp23ReferenceInputParameterIN4arma3ColIjEEEC1EP7SEXPREC"
 "_ZN4Rcpp23ReferenceInputParameterIN4arma3ColIjEEED1Ev"
 "_ZN4Rcpp23ReferenceInputParameterIN4arma3MatIdEEEC1EP7SEXPREC"
 "_ZN4Rcpp23ReferenceInputParameterIN4arma3MatIdEEED1Ev"
 "_ZN4Rcpp28ConstReferenceInputParameterIN4arma3ColIdEEEC1EP7SEXPREC"
 "_ZN4Rcpp28ConstReferenceInputParameterIN4arma3ColIdEEED1Ev"
 "_ZN4Rcpp28ConstReferenceInputParameterIN4arma3ColIjEEEC1EP7SEXPREC"
 "_ZN4Rcpp28ConstReferenceInputParameterIN4arma3ColIjEEED1Ev"
 "_ZN4Rcpp28ConstReferenceInputParameterIN4arma3MatIdEEEC1EP7SEXPREC"
 "_ZN4Rcpp28ConstReferenceInputParameterIN4arma3MatIdEEED1Ev"
 "_ZN4Rcpp28ConstReferenceInputParameterIN4arma3RowIdEEEC1EP7SEXPREC"
 "_ZN4Rcpp28ConstReferenceInputParameterIN4arma3RowIdEEED1Ev"
 "_ZN4Rcpp2asIdEET_P7SEXPREC"
 "_ZN4Rcpp2asIiEET_P7SEXPREC"
 "_ZN4Rcpp2asIjEET_P7SEXPREC"
 "_ZN4Rcpp2asIN4arma3ColIdEEEET_P7SEXPREC"
 "_ZN4Rcpp2asIN4arma3ColIjEEEET_P7SEXPREC"
 "_ZN4Rcpp2asIN4arma3MatIdEEEET_P7SEXPREC"
 "_ZN4Rcpp4stopERKSs"
 "_ZN4Rcpp4stopIIEEEvPKcDpOT_"
 "_ZN4Rcpp4wrapIbEEP7SEXPRECRKT_"
 "_ZN4Rcpp4wrapIdEEP7SEXPRECRKN4arma3ColIT_EE"
 "_ZN4Rcpp4wrapIdEEP7SEXPRECRKN4arma3MatIT_EE"
 "_ZN4Rcpp4wrapIdEEP7SEXPRECRKT_"
 "_ZN4Rcpp4wrapIN9__gnu_cxx17__normal_iteratorIPKiSt6vectorIiSaIiEEEEEEP7SEXPRECT_SB_"
 "_ZN4Rcpp4wrapINS_9DimensionEEEP7SEXPRECRKT_"
 "_ZN4Rcpp4wrapIP7SEXPRECEES2_RKT_"
 "_ZN4Rcpp4wrapIPKdEEP7SEXPRECT_S5_"
 "_ZN4Rcpp6MatrixILi14ENS_15PreserveStorageEE5beginEv"
 "_ZN4Rcpp6MatrixILi14ENS_15PreserveStorageEEC1EP7SEXPREC"
 "_ZN4Rcpp6MatrixILi14ENS_15PreserveStorageEED1Ev"
 "_ZN4Rcpp6r_castILi13EEEP7SEXPRECS2_"
 "_ZN4Rcpp6r_castILi14EEEP7SEXPRECS2_"
 "_ZN4Rcpp6ShieldIP7SEXPRECEC1ES2_"
 "_ZN4Rcpp6ShieldIP7SEXPRECED1Ev"
 "_ZN4Rcpp6traits14MatrixExporterIN4arma3MatIdEEdE3getEv"
 "_ZN4Rcpp6traits14MatrixExporterIN4arma3MatIdEEdEC2EP7SEXPREC"
 "_ZN4Rcpp6traits14MatrixExporterIN4arma3MatIdEEdED2Ev"
 "_ZN4Rcpp6traits14r_vector_cacheILi14ENS_15PreserveStorageEE6updateERKNS_6VectorILi14ES2_EE"
 "_ZN4Rcpp6traits14r_vector_cacheILi14ENS_15PreserveStorageEEC1Ev"
 "_ZN4Rcpp6traits16IndexingExporterIN4arma3ColIdEEdE3getEv"
 "_ZN4Rcpp6traits16IndexingExporterIN4arma3ColIdEEdEC2EP7SEXPREC"
 "_ZN4Rcpp6traits16IndexingExporterIN4arma3ColIdEEdED2Ev"
 "_ZN4Rcpp6traits16IndexingExporterIN4arma3ColIjEEjE3getEv"
 "_ZN4Rcpp6traits16IndexingExporterIN4arma3ColIjEEjEC2EP7SEXPREC"
 "_ZN4Rcpp6traits16IndexingExporterIN4arma3ColIjEEjED2Ev"
 "_ZN4Rcpp6traits24expands_to_logical__implILi14EEC2Ev"
 "_ZN4Rcpp6traits8ExporterIN4arma3ColIdEEEC1EP7SEXPREC"
 "_ZN4Rcpp6traits8ExporterIN4arma3ColIdEEED1Ev"
 "_ZN4Rcpp6traits8ExporterIN4arma3ColIjEEEC1EP7SEXPREC"
 "_ZN4Rcpp6traits8ExporterIN4arma3ColIjEEED1Ev"
 "_ZN4Rcpp6traits8ExporterIN4arma3MatIdEEEC1EP7SEXPREC"
 "_ZN4Rcpp6traits8ExporterIN4arma3MatIdEEED1Ev"
 "_ZN4Rcpp6VectorILi14ENS_15PreserveStorageEE5beginEv"
 "_ZN4Rcpp6VectorILi14ENS_15PreserveStorageEE6updateEP7SEXPREC"
 "_ZN4Rcpp6VectorILi14ENS_15PreserveStorageEEC1EP7SEXPREC"
 "_ZN4Rcpp6VectorILi14ENS_15PreserveStorageEEC2EP7SEXPREC"
 "_ZN4Rcpp6VectorILi14ENS_15PreserveStorageEED1Ev"
 "_ZN4Rcpp6VectorILi14ENS_15PreserveStorageEED2Ev"
 "_ZN4Rcpp7ShelterIP7SEXPRECEC1Ev"
 "_ZN4Rcpp7ShelterIP7SEXPRECEclES2_"
 "_ZN4Rcpp7ShelterIP7SEXPRECED1Ev"
 "_ZN4Rcpp8internal10basic_castILi13EEEP7SEXPRECS3_"
 "_ZN4Rcpp8internal10basic_castILi14EEEP7SEXPRECS3_"
 "_ZN4Rcpp8internal10range_wrapIN9__gnu_cxx17__normal_iteratorIPKiSt6vectorIiSaIiEEEEEEP7SEXPRECT_SC_"
 "_ZN4Rcpp8internal10range_wrapIPKdEEP7SEXPRECT_S6_"
 "_ZN4Rcpp8internal10resumeJumpEP7SEXPREC"
 "_ZN4Rcpp8internal11r_true_castILi13EEEP7SEXPRECS3_"
 "_ZN4Rcpp8internal11r_true_castILi14EEEP7SEXPRECS3_"
 "_ZN4Rcpp8internal12exitRNGScopeEv"
 "_ZN4Rcpp8internal12primitive_asIdEET_P7SEXPREC"
 "_ZN4Rcpp8internal12primitive_asIiEET_P7SEXPREC"
 "_ZN4Rcpp8internal12primitive_asIjEET_P7SEXPREC"
 "_ZN4Rcpp8internal13enterRNGScopeEv"
 "_ZN4Rcpp8internal13wrap_dispatchIbEEP7SEXPRECRKT_NS_6traits23wrap_type_primitive_tagE"
 "_ZN4Rcpp8internal13wrap_dispatchIdEEP7SEXPRECRKT_NS_6traits23wrap_type_primitive_tagE"
 "_ZN4Rcpp8internal13wrap_dispatchINS_9DimensionEEEP7SEXPRECRKT_NS_6traits21wrap_type_unknown_tagE"
 "_ZN4Rcpp8internal13wrap_dispatchIP7SEXPRECEES3_RKT_NS_6traits21wrap_type_unknown_tagE"
 "_ZN4Rcpp8internal14primitive_wrapIbEEP7SEXPRECRKT_"
 "_ZN4Rcpp8internal14primitive_wrapIdEEP7SEXPRECRKT_"
 "_ZN4Rcpp8internal14r_vector_startILi10EEEPNS_6traits12storage_typeIXT_EE4typeEP7SEXPREC"
 "_ZN4Rcpp8internal14r_vector_startILi13EEEPNS_6traits12storage_typeIXT_EE4typeEP7SEXPREC"
 "_ZN4Rcpp8internal14r_vector_startILi14EEEPNS_6traits12storage_typeIXT_EE4typeEP7SEXPREC"
 "_ZN4Rcpp8internal14Rcpp_eval_implEP7SEXPRECS2_"
 "_ZN4Rcpp8internal15export_indexingIN4arma3ColIdEEdEEvP7SEXPRECRT_"
 "_ZN4Rcpp8internal15export_indexingIN4arma3ColIjEEjEEvP7SEXPRECRT_"
 "_ZN4Rcpp8internal15export_indexingIN4arma3MatIdEEdEEvP7SEXPRECRT_"
 "_ZN4Rcpp8internal16getLongjumpTokenEP7SEXPREC"
 "_ZN4Rcpp8internal16NamedPlaceHolderC1Ev"
 "_ZN4Rcpp8internal16NamedPlaceHolderD1Ev"
 "_ZN4Rcpp8internal17is_Rcpp_eval_callEP7SEXPREC"
 "_ZN4Rcpp8internal18isLongjumpSentinelEP7SEXPREC"
 "_ZN4Rcpp8internal19range_wrap_dispatchIN9__gnu_cxx17__normal_iteratorIPKiSt6vectorIiSaIiEEEEiEEP7SEXPRECT_SC_"
 "_ZN4Rcpp8internal19range_wrap_dispatchIPKddEEP7SEXPRECT_S6_"
 "_ZN4Rcpp8internal19wrap_dispatch_eigenINS_9DimensionEEEP7SEXPRECRKT_NS_6traits17integral_constantIbLb0EEE"
 "_ZN4Rcpp8internal19wrap_dispatch_eigenIP7SEXPRECEES3_RKT_NS_6traits17integral_constantIbLb0EEE"
 "_ZN4Rcpp8internal20primitive_wrap__implIbEEP7SEXPRECRKT_NS_6traits20r_type_primitive_tagE"
 "_ZN4Rcpp8internal20primitive_wrap__implIdEEP7SEXPRECRKT_NS_6traits20r_type_primitive_tagE"
 "_ZN4Rcpp8internal21export_indexing__implIN4arma3ColIdEEdEEvP7SEXPRECRT_NS_6traits17integral_constantIbLb0EEE"
 "_ZN4Rcpp8internal21export_indexing__implIN4arma3ColIjEEjEEvP7SEXPRECRT_NS_6traits17integral_constantIbLb1EEE"
 "_ZN4Rcpp8internal21export_indexing__implIN4arma3MatIdEEdEEvP7SEXPRECRT_NS_6traits17integral_constantIbLb0EEE"
 "_ZN4Rcpp8internal21wrap_dispatch_unknownINS_9DimensionEEEP7SEXPRECRKT_NS_6traits17integral_constantIbLb1EEE"
 "_ZN4Rcpp8internal21wrap_dispatch_unknownIP7SEXPRECEES3_RKT_NS_6traits17integral_constantIbLb1EEE"
 "_ZN4Rcpp8internal25export_indexing__dispatchIN4arma3ColIdEEdEEvP7SEXPRECRT_NS_6traits20r_type_primitive_tagE"
 "_ZN4Rcpp8internal25export_indexing__dispatchIN4arma3ColIjEEjEEvP7SEXPRECRT_NS_6traits20r_type_primitive_tagE"
 "_ZN4Rcpp8internal25export_indexing__dispatchIN4arma3MatIdEEdEEvP7SEXPRECRT_NS_6traits20r_type_primitive_tagE"
 "_ZN4Rcpp8internal26primitive_range_wrap__implIN9__gnu_cxx17__normal_iteratorIPKiSt6vectorIiSaIiEEEEiEEP7SEXPRECT_SC_NS_6traits17integral_constantIbLb0EEE"
 "_ZN4Rcpp8internal26primitive_range_wrap__implIPKddEEP7SEXPRECT_S6_NS_6traits17integral_constantIbLb0EEE"
 "_ZN4Rcpp8internal26primitive_wrap__impl__castIbEEP7SEXPRECRKT_NS_6traits17integral_constantIbLb1EEE"
 "_ZN4Rcpp8internal26primitive_wrap__impl__castIdEEP7SEXPRECRKT_NS_6traits17integral_constantIbLb0EEE"
 "_ZN4Rcpp8internal26range_wrap_dispatch___implIN9__gnu_cxx17__normal_iteratorIPKiSt6vectorIiSaIiEEEEiEEP7SEXPRECT_SC_NS_6traits20r_type_primitive_tagE"
 "_ZN4Rcpp8internal26range_wrap_dispatch___implIPKddEEP7SEXPRECT_S6_NS_6traits20r_type_primitive_tagE"
 "_ZN4Rcpp8internal2asIdEET_P7SEXPRECNS_6traits20r_type_primitive_tagE"
 "_ZN4Rcpp8internal2asIiEET_P7SEXPRECNS_6traits20r_type_primitive_tagE"
 "_ZN4Rcpp8internal2asIjEET_P7SEXPRECNS_6traits20r_type_primitive_tagE"
 "_ZN4Rcpp8internal2asIN4arma3ColIdEEEET_P7SEXPRECNS_6traits18r_type_generic_tagE"
 "_ZN4Rcpp8internal2asIN4arma3ColIjEEEET_P7SEXPRECNS_6traits18r_type_generic_tagE"
 "_ZN4Rcpp8internal2asIN4arma3MatIdEEEET_P7SEXPRECNS_6traits18r_type_generic_tagE"
 "_ZN4Rcpp8internal32wrap_dispatch_unknown_importableINS_9DimensionEEEP7SEXPRECRKT_NS_6traits17integral_constantIbLb0EEE"
 "_ZN4Rcpp8internal32wrap_dispatch_unknown_importableIP7SEXPRECEES3_RKT_NS_6traits17integral_constantIbLb0EEE"
 "_ZN4Rcpp8internal34primitive_range_wrap__impl__nocastIN9__gnu_cxx17__normal_iteratorIPKiSt6vectorIiSaIiEEEEiEEP7SEXPRECT_SC_St26random_access_iterator_tag"
 "_ZN4Rcpp8internal34primitive_range_wrap__impl__nocastIPKddEEP7SEXPRECT_S6_St26random_access_iterator_tag"
 "_ZN4Rcpp8internal3nthEP7SEXPRECi"
 "_ZN4Rcpp8internal6casterIbiEET0_T_"
 "_ZN4Rcpp8internal6casterIddEET0_T_"
 "_ZN4Rcpp8internal6casterIdjEET0_T_"
 "_ZN4Rcpp8internal6casterIiiEET0_T_"
 "_ZN4Rcpp8RNGScopeC1Ev"
 "_ZN4Rcpp8RNGScopeD1Ev"
 "_ZN4Rcpp8RostreamILb0EEC1Ev"
 "_ZN4Rcpp8RostreamILb0EED0Ev"
 "_ZN4Rcpp8RostreamILb0EED1Ev"
 "_ZN4Rcpp8RostreamILb1EEC1Ev"
 "_ZN4Rcpp8RostreamILb1EED0Ev"
 "_ZN4Rcpp8RostreamILb1EED1Ev"
 "_ZN4Rcpp9DimensionC1ERKyS2_"
 "_ZN4Rcpp9DimensionD1Ev"
 "_ZN4Rcpp9exceptionC1EPKcb"
 "_ZN4Rcpp9exceptionD0Ev"
 "_ZN4Rcpp9exceptionD1Ev"
 "_ZN4Rcpp9Rcpp_evalEP7SEXPRECS1_"
 "_ZN9__gnu_cxx13new_allocatorIiE10deallocateEPiy"
 "_ZN9__gnu_cxx13new_allocatorIiE8allocateEyPKv"
 "_ZN9__gnu_cxx13new_allocatorIiEC2ERKS1_"
 "_ZN9__gnu_cxx13new_allocatorIiEC2Ev"
 "_ZN9__gnu_cxx13new_allocatorIiED2Ev"
 "_ZN9__gnu_cxx17__normal_iteratorIPKiSt6vectorIiSaIiEEEC1ERKS2_"
 "_ZN9__gnu_cxxmiIPKiSt6vectorIiSaIiEEEENS_17__normal_iteratorIT_T0_E15difference_typeERKS9_SC_"
 "_ZNK10tinyformat6detail9FormatArg5toIntEv"
 "_ZNK10tinyformat6detail9FormatArg6formatERSoPKcS4_i"
 "_ZNK4Rcpp10eval_error4whatEv"
 "_ZNK4Rcpp12not_a_matrix4whatEv"
 "_ZNK4Rcpp14not_compatible4whatEv"
 "_ZNK4Rcpp15PreserveStorageINS_12RObject_ImplIS0_EEEcvP7SEXPRECEv"
 "_ZNK4Rcpp15PreserveStorageINS_6VectorILi14ES0_EEE5get__Ev"
 "_ZNK4Rcpp15PreserveStorageINS_6VectorILi14ES0_EEEcvP7SEXPRECEv"
 "_ZNK4Rcpp6MatrixILi14ENS_15PreserveStorageEE4ncolEv"
 "_ZNK4Rcpp6MatrixILi14ENS_15PreserveStorageEE4nrowEv"
 "_ZNK4Rcpp6ShieldIP7SEXPRECEcvS2_Ev"
 "_ZNK4Rcpp6traits14r_vector_cacheILi14ENS_15PreserveStorageEE3getEv"
 "_ZNK4Rcpp6VectorILi14ENS_15PreserveStorageEE4dimsEv"
 "_ZNK4Rcpp6VectorILi14ENS_15PreserveStorageEE4sizeEv"
 "_ZNK4Rcpp9DimensioncvP7SEXPRECEv"
 "_ZNK4Rcpp9exception12include_callEv"
 "_ZNK4Rcpp9exception4whatEv"
 "_ZNK9__gnu_cxx13new_allocatorIiE8max_sizeEv"
 "_ZNK9__gnu_cxx17__normal_iteratorIPKiSt6vectorIiSaIiEEE4baseEv"
 "_ZNK9__gnu_cxx17__normal_iteratorIPKiSt6vectorIiSaIiEEEixEx"
 "_ZNKSt6vectorIiSaIiEE3endEv"
 "_ZNKSt6vectorIiSaIiEE5beginEv"
 "_ZNKSt8ios_base5flagsEv"
 "_ZNKSt8ios_base5widthEv"
 "_ZNKSt8ios_base9precisionEv"
 "_ZNKSt9type_info4nameEv"
 "_ZNSaIiEC1Ev"
 "_ZNSaIiEC2ERKS_"
 "_ZNSaIiED1Ev"
 "_ZNSaIiED2Ev"
 "_ZNSt10_Iter_baseIPiLb0EE7_S_baseES0_"
 "_ZNSt11char_traitsIcE12to_char_typeERKi"
 "_ZNSt11char_traitsIcE3eofEv"
 "_ZNSt12_Destroy_auxILb1EE9__destroyIPiEEvT_S3_"
 "_ZNSt12_Vector_baseIiSaIiEE11_M_allocateEy"
 "_ZNSt12_Vector_baseIiSaIiEE12_Vector_implC1ERKS0_"
 "_ZNSt12_Vector_baseIiSaIiEE12_Vector_implD1Ev"
 "_ZNSt12_Vector_baseIiSaIiEE13_M_deallocateEPiy"
 "_ZNSt12_Vector_baseIiSaIiEE17_M_create_storageEy"
 "_ZNSt12_Vector_baseIiSaIiEE19_M_get_Tp_allocatorEv"
 "_ZNSt12_Vector_baseIiSaIiEEC2EyRKS0_"
 "_ZNSt12_Vector_baseIiSaIiEED2Ev"
 "_ZNSt14numeric_limitsIdE9quiet_NaNEv"
 "_ZNSt14numeric_limitsIyE3maxEv"
 "_ZNSt16allocator_traitsISaIiEE10deallocateERS0_Piy"
 "_ZNSt16allocator_traitsISaIiEE8allocateERS0_y"
 "_ZNSt27__uninitialized_default_n_1ILb1EE18__uninit_default_nIPiyEEvT_T0_"
 "_ZNSt6vectorIiSaIiEE21_M_default_initializeEy"
 "_ZNSt6vectorIiSaIiEEC1EyRKS0_"
 "_ZNSt6vectorIiSaIiEED1Ev"
 "_ZNSt6vectorIiSaIiEEixEy"
 "_ZNSt8ios_base4setfESt13_Ios_Fmtflags"
 "_ZNSt8ios_base4setfESt13_Ios_FmtflagsS0_"
 "_ZNSt8ios_base5flagsESt13_Ios_Fmtflags"
 "_ZNSt8ios_base5widthEx"
 "_ZNSt8ios_base6unsetfESt13_Ios_Fmtflags"
 "_ZNSt8ios_base9precisionEx"
 "_ZNSt9bad_allocC1Ev"
 "_ZNSt9exceptionC2Ev"
 "_ZSt10__distanceIN9__gnu_cxx17__normal_iteratorIPKiSt6vectorIiSaIiEEEEENSt15iterator_traitsIT_E15difference_typeES9_S9_St26random_access_iterator_tag"
 "_ZSt10__distanceIPKdENSt15iterator_traitsIT_E15difference_typeES3_S3_St26random_access_iterator_tag"
 "_ZSt10__fill_n_aIPiyiEN9__gnu_cxx11__enable_ifIXsrSt11__is_scalarIT1_E7__valueET_E6__typeES6_T0_RKS4_"
 "_ZSt12__niter_baseIPiENSt11_Niter_baseIT_E13iterator_typeES2_"
 "_ZSt19__iterator_categoryIN9__gnu_cxx17__normal_iteratorIPKiSt6vectorIiSaIiEEEEENSt15iterator_traitsIT_E17iterator_categoryERKS9_"
 "_ZSt19__iterator_categoryIPKdENSt15iterator_traitsIT_E17iterator_categoryERKS3_"
 "_ZSt25__uninitialized_default_nIPiyEvT_T0_"
 "_ZSt27__uninitialized_default_n_aIPiyiEvT_T0_RSaIT1_E"
 "_ZSt3minIiERKT_S2_S2_"
 "_ZSt4moveIRSsEONSt16remove_referenceIT_E4typeEOS2_"
 "_ZSt6fill_nIPiyiET_S1_T0_RKT1_"
 "_ZSt7forwardIiEOT_RNSt16remove_referenceIS0_E4typeE"
 "_ZSt7forwardIPKcEOT_RNSt16remove_referenceIS2_E4typeE"
 "_ZSt8_DestroyIPiEvT_S1_"
 "_ZSt8_DestroyIPiiEvT_S1_RSaIT0_E"
 "_ZSt8distanceIN9__gnu_cxx17__normal_iteratorIPKiSt6vectorIiSaIiEEEEENSt15iterator_traitsIT_E15difference_typeES9_S9_"
 "_ZSt8distanceIPKdENSt15iterator_traitsIT_E15difference_typeES3_S3_"
 "_ZStaNRSt13_Ios_FmtflagsS_"
 "_ZStanSt13_Ios_FmtflagsS_"
 "_ZStcoSt13_Ios_Fmtflags"
 "_ZStoRRSt13_Ios_FmtflagsS_"
 "_ZStorSt13_Ios_FmtflagsS_"
 "_ZStplIcSt11char_traitsIcESaIcEESbIT_T0_T1_EOS6_PKS3_"
 "_ZStplIcSt11char_traitsIcESaIcEESbIT_T0_T1_EOS6_RKS6_"
 "_ZTCN4Rcpp8RostreamILb0EEE0_So"
 "_ZTCN4Rcpp8RostreamILb1EEE0_So"
 "_ZTIN4Rcpp10eval_errorE"
 "_ZTIN4Rcpp10RstreambufILb0EEE"
 "_ZTIN4Rcpp10RstreambufILb1EEE"
 "_ZTIN4Rcpp12not_a_matrixE"
 "_ZTIN4Rcpp14not_compatibleE"
 "_ZTIN4Rcpp17LongjumpExceptionE"
 "_ZTIN4Rcpp8internal20InterruptedExceptionE"
 "_ZTIN4Rcpp8RostreamILb0EEE"
 "_ZTIN4Rcpp8RostreamILb1EEE"
 "_ZTIN4Rcpp9exceptionE"
 "_ZTISt11logic_error"
 "_ZTISt9bad_alloc"
 "_ZTISt9exception"
 "_ZTSN4Rcpp10eval_errorE"
 "_ZTSN4Rcpp10RstreambufILb0EEE"
 "_ZTSN4Rcpp10RstreambufILb1EEE"
 "_ZTSN4Rcpp12not_a_matrixE"
 "_ZTSN4Rcpp14not_compatibleE"
 "_ZTSN4Rcpp17LongjumpExceptionE"
 "_ZTSN4Rcpp8internal20InterruptedExceptionE"
 "_ZTSN4Rcpp8RostreamILb0EEE"
 "_ZTSN4Rcpp8RostreamILb1EEE"
 "_ZTSN4Rcpp9exceptionE"
 "_ZTSSt11logic_error"
 "_ZTSSt9bad_alloc"
 "_ZTSSt9exception"
 "_ZTTN4Rcpp8RostreamILb0EEE"
 "_ZTTN4Rcpp8RostreamILb1EEE"
 "_ZTv0_n24_N4Rcpp8RostreamILb0EED0Ev"
 "_ZTv0_n24_N4Rcpp8RostreamILb0EED1Ev"
 "_ZTv0_n24_N4Rcpp8RostreamILb1EED0Ev"
 "_ZTv0_n24_N4Rcpp8RostreamILb1EED1Ev"
 "_ZTVN4Rcpp10eval_errorE"
 "_ZTVN4Rcpp10RstreambufILb0EEE"
 "_ZTVN4Rcpp10RstreambufILb1EEE"
 "_ZTVN4Rcpp12not_a_matrixE"
 "_ZTVN4Rcpp14not_compatibleE"
 "_ZTVN4Rcpp8RostreamILb0EEE"
 "_ZTVN4Rcpp8RostreamILb1EEE"
 "_ZTVN4Rcpp9exceptionE"
 "_ZZ11stack_tracePKciE3fun"
 "_ZZ20rcpp_get_stack_tracevE3fun"
 "_ZZ20rcpp_set_stack_traceP7SEXPRECE3fun"
 "_ZZ7dataptrP7SEXPRECE3fun"
 "_ZZ8demangleRKSsE3fun"
 "_ZZN4arma16arma_cerr_streamIcEERSoPSoE11cerr_stream"
 "_ZZN4Rcpp8internal12exitRNGScopeEvE3fun"
 "_ZZN4Rcpp8internal13enterRNGScopeEvE3fun"
 "R_init_nSGMM"
 "_Z11CcomponentsRKN4arma3MatIdEERNS_3ColIjEES6_RS1_S7_"
 "_Z11rank_peopleN4arma3ColIdEEi"
 "_Z11stack_tracePKci"
 "_Z12breadthfirstjRjRN4arma3ColIjEERKNS0_3MatIdEE"
 "_Z13max_ind_simonRKN4arma3ColIdEE"
 "_Z13utlity_cppvecRKN4arma3ColIdEERKNS_3RowIdEE"
 "_Z16component_countsRKN4arma3MatIdEE"
 "_Z16mynegutility_cppRKN4arma3ColIdEEiNS_3MatIdEERKS5_S3_"
 "_Z16simulate_BBP_cppiddddRN4arma3MatIdEES2_S2_RNS_3ColIdEEi"
 "_Z18BBP_c_from_atY_cppRKN4arma3MatIdEES3_RKNS_3ColIdEES3_RKNS4_IjEES3_"
 "_Z18BBP_T_from_tYc_cppN4arma3MatIdEERKNS_3ColIdEES5_S1_j"
 "_Z20rcpp_set_stack_traceP7SEXPREC"
 "_Z21equilibrate_cpp_fast5RKN4arma3MatIdEERKNS_3ColIdEEi"
 "_Z23consumption_weights_cppRKN4arma3MatIdEES1_S3_"
 "_Z24BBP_T_from_atY_plain_cppRKN4arma3MatIdEES3_RKNS_3ColIdEE"
 "_Z26BBP_in_equilibrium_YaT_cppRKN4arma3MatIdEERKNS_3ColIdEES3_S3_d"
 "_Z28mynegutility_cpp_consumptionRKN4arma3ColIdEEiNS_3MatIdEERKS5_S1_"
 "_Z29equilibrate_cpp_fast7_smarterRKN4arma3MatIdEERKNS_3ColIdEES3_i"
 "_Z34get_BBP_BR_analytically_cpp_inlinejN4arma3MatIdEERKNS_3ColIdEERKS1_S7_"
 "_Z36BBP_update_BR_analytically_cpp_fast5jRN4arma3MatIdEERNS_3ColIdEES5_RKS4_RKS1_"
 "_Z3tici"
 "_Z3tocv"
 "_Z44BBP_update_BR_analytically_cpp_fast7_smarterjRN4arma3MatIdEERNS_3ColIdEES5_RKS4_RKS1_S9_"
 "_Z7dataptrP7SEXPREC"
 "_Z9meannanrmN4arma3MatIdEEi"
 "_ZGVN4arma5DatumIdE3infE"
 "_ZGVN4arma5DatumIdE3nanE"
 "_ZGVN4arma5DatumIiE3nanE"
 "_ZGVN4arma5DatumIjE3nanE"
 "_ZGVZ11stack_tracePKciE3fun"
 "_ZGVZ20rcpp_set_stack_traceP7SEXPRECE3fun"
 "_ZGVZ7dataptrP7SEXPRECE3fun"
 "_ZN10tinyformat10FormatListC2EPNS_6detail9FormatArgEi"
 "_ZN10tinyformat11formatValueIPKcEEvRSoS2_S2_iRKT_"
 "_ZN10tinyformat14makeFormatListIIEEENS_6detail11FormatListNIXstDpT_EEEDpRKS3_"
 "_ZN10tinyformat14makeFormatListIIPKcS2_EEENS_6detail11FormatListNIXstDpT_EEEDpRKS5_"
 "_ZN10tinyformat6detail10formatImplERSoPKcPKNS0_9FormatArgEi"
 "_ZN10tinyformat6detail11FormatListNILi0EEC1Ev"
 "_ZN10tinyformat6detail11FormatListNILi2EEC1IIPKcS5_EEEDpRKT_"
 "_ZN10tinyformat6detail12convertToIntIPKcLb0EE6invokeERKS3_"
 "_ZN10tinyformat6detail15formatTruncatedERSoPKci"
 "_ZN10tinyformat6detail17formatValueAsTypeIPKcPKvLb1EE6invokeERSoRKS3_"
 "_ZN10tinyformat6detail18parseIntAndAdvanceERPKc"
 "_ZN10tinyformat6detail21streamStateFromFormatERSoRbRiPKcPKNS0_9FormatArgES3_i"
 "_ZN10tinyformat6detail24printFormatStringLiteralERSoPKc"
 "_ZN10tinyformat6detail9FormatArg10formatImplIPKcEEvRSoS4_S4_iPKv"
 "_ZN10tinyformat6detail9FormatArg9toIntImplIPKcEEiPKv"
 "_ZN10tinyformat6detail9FormatArgC1IPKcEERKT_"
 "_ZN10tinyformat6formatIIEEESsPKcDpRKT_"
 "_ZN10tinyformat6formatIIEEEvRSoPKcDpRKT_"
 "_ZN10tinyformat6formatIIPKcS2_EEESsS2_DpRKT_"
 "_ZN10tinyformat6formatIIPKcS2_EEEvRSoS2_DpRKT_"
 "_ZN10tinyformat7vformatERSoPKcRKNS_10FormatListE"
 "_ZN4arma10arma_checkIA27_cEEvbRKT_"
 "_ZN4arma10arma_checkIA30_cEEvbRKT_"
 "_ZN4arma10arma_checkIA32_cEEvbRKT_"
 "_ZN4arma10arma_checkIA33_cEEvbRKT_"
 "_ZN4arma10arma_checkIA35_cEEvbRKT_"
 "_ZN4arma10arma_checkIA37_cEEvbRKT_"
 "_ZN4arma10arma_checkIA38_cEEvbRKT_"
 "_ZN4arma10arma_checkIA42_cEEvbRKT_"
 "_ZN4arma10arma_checkIA46_cEEvbRKT_"
 "_ZN4arma10arma_checkIA48_cEEvbRKT_"
 "_ZN4arma10arma_checkIA53_cEEvbRKT_"
 "_ZN4arma10arma_checkIA55_cEEvbRKT_"
 "_ZN4arma10arma_checkIA57_cEEvbRKT_"
 "_ZN4arma10arma_checkIA60_cEEvbRKT_"
 "_ZN4arma10arma_checkIA72_cEEvbRKT_"
 "_ZN4arma10arma_checkIA74_cEEvbRKT_"
 "_ZN4arma10arma_checkIA75_cEEvbRKT_"
 "_ZN4arma10arma_checkIA81_cEEvbRKT_"
 "_ZN4arma10arma_checkIA88_cEEvbRKT_"
 "_ZN4arma10arma_checkIPcEEvbRKT_"
 "_ZN4arma10arma_checkIPKcEEvbRKT_"
 "_ZN4arma10eglue_coreINS_10eglue_plusEE5applyINS_3MatIdEES5_NS_2OpIS5_NS_9op_htransEEEEEvRT_RKNS_5eGlueIT0_T1_S1_EE"
 "_ZN4arma10eglue_coreINS_10eglue_plusEE5applyINS_3MatIjEENS_5eGlueINS_4mtOpIjNS_3eOpINS6_INS4_IdEES9_NS_11eglue_minusEEENS_7eop_absEEENS_14op_rel_lt_postEEENS7_IjS9_NS_14op_rel_gt_postEEENS_11eglue_schurEEENS6_INS7_IjS9_NS_9op_rel_eqEEENS_6mtGlueIjS9_S9_NS_13glue_rel_gteqEEESI_EEEEvRT_RKNS6_IT0_T1_S1_EE"
 "_ZN4arma10eglue_coreINS_11eglue_minusEE19apply_inplace_minusINS_2OpINS_11subview_rowIdEENS_9op_htransEEENS_3ColIdEEEEvRNS_3MatINT_9elem_typeEEERKNS_5eGlueISC_T0_S1_EE"
 "_ZN4arma10eglue_coreINS_11eglue_minusEE5applyINS_3MatIdEENS_2OpINS_13subview_elem2IdNS4_IjEES8_EENS_10op_htrans2EEENS_13subview_elem1IdS8_EEEEvRT_RKNS_5eGlueIT0_T1_S1_EE"
 "_ZN4arma10eglue_coreINS_11eglue_minusEE5applyINS_3MatIdEENS_3ColIdEES7_EEvRT_RKNS_5eGlueIT0_T1_S1_EE"
 "_ZN4arma10eglue_coreINS_11eglue_minusEE5applyINS_3MatIdEENS_3eOpINS_13subview_elem2IdNS_7subviewIjEENS4_IjEEEENS_16eop_scalar_timesEEENS_13subview_elem1IdS9_EEEEvRT_RKNS_5eGlueIT0_T1_S1_EE"
 "_ZN4arma10eglue_coreINS_11eglue_minusEE5applyINS_3MatIdEENS_5eGlueINS_3ColIdEENS_2OpINS9_IS5_NS_6op_sumEEENS_9op_htransEEENS_10eglue_plusEEESB_EEvRT_RKNS6_IT0_T1_S1_EE"
 "_ZN4arma10eglue_coreINS_11eglue_minusEE5applyINS_3MatIdEENS_5eGlueINS_3ColIdEES8_NS_10eglue_plusEEES8_EEvRT_RKNS6_IT0_T1_S1_EE"
 "_ZN4arma10eglue_coreINS_11eglue_minusEE5applyINS_3MatIdEES5_NS_2OpIS5_NS_9op_htransEEEEEvRT_RKNS_5eGlueIT0_T1_S1_EE"
 "_ZN4arma10eglue_coreINS_11eglue_schurEE5applyINS_3MatIdEES5_NS_3ColIdEEEEvRT_RKNS_5eGlueIT0_T1_S1_EE"
 "_ZN4arma10eglue_coreINS_9eglue_divEE5applyINS_3MatIdEENS_11subview_colIdEENS_4mtOpIdNS_3ColIdEENS_8op_clampEEEEEvRT_RKNS_5eGlueIT0_T1_S1_EE"
 "_ZN4arma10eglue_coreINS_9eglue_divEE5applyINS_3MatIdEENS_2OpIS5_NS_6op_sumEEES8_EEvRT_RKNS_5eGlueIT0_T1_S1_EE"
 "_ZN4arma10eglue_plus4textEv"
 "_ZN4arma10glue_times5applyIdLb0ELb0ELb0ENS_3MatIdEENS_3ColIdEEEEvRNS2_IT_EERKT3_RKT4_S6_"
 "_ZN4arma10glue_times5applyIdLb0ELb0ELb0ENS_3MatIdEES3_EEvRNS2_IT_EERKT3_RKT4_S4_"
 "_ZN4arma10glue_times5applyIdLb0ELb1ELb0ENS_3MatIdEENS_3ColIdEEEEvRNS2_IT_EERKT3_RKT4_S6_"
 "_ZN4arma10glue_times5applyIdLb1ELb0ELb0ENS_3ColIdEENS_3MatIdEEEEvRNS4_IT_EERKT3_RKT4_S6_"
 "_ZN4arma10glue_times5applyINS_2OpINS_3ColIdEENS_9op_htransEEENS_3MatIdEEEEvRNS7_INT_9elem_typeEEERKNS_4GlueIS9_T0_S0_EE"
 "_ZN4arma10glue_times5applyINS_3eOpINS_3ColIdEENS_18eop_scalar_div_preEEENS_2OpIS4_NS_9op_htransEEEEEvRNS_3MatINT_9elem_typeEEERKNS_4GlueISB_T0_S0_EE"
 "_ZN4arma10glue_times5applyINS_3MatIdEENS_3ColIdEEEEvRNS2_INT_9elem_typeEEERKNS_4GlueIS6_T0_S0_EE"
 "_ZN4arma10glue_times5applyINS_3MatIdEES3_EEvRNS2_INT_9elem_typeEEERKNS_4GlueIS4_T0_S0_EE"
 "_ZN4arma10solve_opts12opts_no_bandC1Ev"
 "_ZN4arma10solve_opts13opts_no_sympdC1Ev"
 "_ZN4arma10solve_opts14opts_no_approxC1Ev"
 "_ZN4arma10solve_opts15opts_allow_uglyC1Ev"
 "_ZN4arma10solve_opts16opts_equilibrateC1Ev"
 "_ZN4arma10solve_opts17opts_likely_sympdC1Ev"
 "_ZN4arma10solve_opts4optsC2Ej"
 "_ZN4arma10solve_opts9opts_fastC1Ev"
 "_ZN4arma10solve_opts9opts_noneC1Ev"
 "_ZN4arma10solve_opts9opts_trilC1Ev"
 "_ZN4arma10solve_opts9opts_triuC1Ev"
 "_ZN4arma10sort_indexINS_3ColIdEEcEENS_10enable_if2IXaaeqsrNS_12is_arma_typeIT_EE5valueLb1EeqsrNS_12is_same_typeIT0_cEE5valueLb1EEKNS_4mtOpIjS5_NS_13op_sort_indexEEEE6resultERKS5_PKS8_"
 "_ZN4arma10xtrans_matIdLb1EEC1ERKNS_3MatIdEE"
 "_ZN4arma10xtrans_matIdLb1EED1Ev"
 "_ZN4arma11eglue_minus4textEv"
 "_ZN4arma11eglue_schur4textEv"
 "_ZN4arma11find_finiteINS_3MatIdEEEENS_10enable_if2IXsrNS_12is_arma_typeIT_EE5valueEKNS_4mtOpIjS5_NS_14op_find_finiteEEEE6resultERKS5_"
 "_ZN4arma11Glue_traitsINS_2OpINS_3ColIdEENS_9op_htransEEENS_3MatIdEENS_10glue_timesELb1EEC2Ev"
 "_ZN4arma11Glue_traitsINS_3eOpINS_3ColIdEENS_18eop_scalar_div_preEEENS_2OpIS3_NS_9op_htransEEENS_10glue_timesELb1EEC2Ev"
 "_ZN4arma11Glue_traitsINS_3MatIdEENS_3ColIdEENS_10glue_timesELb1EEC2Ev"
 "_ZN4arma11Glue_traitsINS_3MatIdEES2_NS_10glue_timesELb1EEC2Ev"
 "_ZN4arma11Glue_traitsINS_3RowIdEENS_3eOpINS_3ColIdEENS_7eop_logEEENS_10glue_timesELb1EEC2Ev"
 "_ZN4arma11Glue_traitsINS_5eGlueINS_3MatIdEENS_2OpIS3_NS_9op_htransEEENS_11eglue_minusEEENS_3GenIS3_NS_9gen_zerosEEENS_8glue_maxELb1EEC2Ev"
 "_ZN4arma11subview_colIdEaSINS_3MatIdEEEEvRKNS_4BaseIdT_EE"
 "_ZN4arma11subview_colIdEC1ERKNS_3MatIdEEj"
 "_ZN4arma11subview_colIdED1Ev"
 "_ZN4arma11subview_colIjEaSINS_3MatIjEEEEvRKNS_4BaseIjT_EE"
 "_ZN4arma11subview_colIjEC1ERKNS_3MatIjEEjjj"
 "_ZN4arma11subview_colIjED1Ev"
 "_ZN4arma11subview_rowIdEaSINS_2OpINS_3ColIdEENS_9op_htransEEEEEvRKNS_4BaseIdT_EE"
 "_ZN4arma11subview_rowIdEaSINS_3MatIdEEEEvRKNS_4BaseIdT_EE"
 "_ZN4arma11subview_rowIdEC1ERKNS_3MatIdEEj"
 "_ZN4arma11subview_rowIdED1Ev"
 "_ZN4arma11syrk_helper35inplace_copy_upper_tri_to_lower_triIdEEvRNS_3MatIT_EE"
 "_ZN4arma12approx_equalINS_2OpINS_3ColIdEENS_9op_htransEEENS_7subviewIdEEEEbRKNS_4BaseINT_9elem_typeES9_EERKNS8_ISA_T0_EEPKcNS9_8pod_typeE"
 "_ZN4arma12arma_ostream10print_elemIdEEvRSoRKT_b"
 "_ZN4arma12arma_ostream13modify_streamIdEExRSoPKT_j"
 "_ZN4arma12arma_ostream15print_elem_zeroIdEEvRSob"
 "_ZN4arma12arma_ostream5printIdEEvRSoRKNS_3MatIT_EEb"
 "_ZN4arma12arma_rng_alt14randn_dual_valIdEEvRT_S3_"
 "_ZN4arma12arma_rng_alt9randn_valEv"
 "_ZN4arma12op_rel_noteq5applyINS_3ColIdEEEEvRNS_3MatIjEERKNS_4mtOpIjT_S0_EE"
 "_ZN4arma12promote_typeIdjE5checkEv"
 "_ZN4arma12quasi_unwrapINS_2OpINS_3ColIdEENS_9op_htransEEEEC1ERKS5_"
 "_ZN4arma12quasi_unwrapINS_2OpINS_3ColIdEENS_9op_htransEEEED1Ev"
 "_ZN4arma12quasi_unwrapINS_3ColIdEEEC1ERKS2_"
 "_ZN4arma12quasi_unwrapINS_3eOpINS_3ColIdEENS_7eop_negEEEEC1ERKS5_"
 "_ZN4arma12quasi_unwrapINS_3eOpINS_3ColIdEENS_7eop_negEEEED1Ev"
 "_ZN4arma12quasi_unwrapINS_3MatIdEEEC1ERKS2_"
 "_ZN4arma12quasi_unwrapINS_4GlueINS_2OpINS_3ColIdEENS_9op_htransEEENS_3MatIdEENS_10glue_timesEEEEC1ERKSA_"
 "_ZN4arma12quasi_unwrapINS_4GlueINS_2OpINS_3ColIdEENS_9op_htransEEENS_3MatIdEENS_10glue_timesEEEED1Ev"
 "_ZN4arma12unwrap_checkINS_3MatIdEEEC1ERKS2_b"
 "_ZN4arma12unwrap_checkINS_3MatIdEEED1Ev"
 "_ZN4arma12unwrap_checkINS_3MatIjEEEC1ERKS2_b"
 "_ZN4arma12unwrap_checkINS_3MatIjEEED1Ev"
 "_ZN4arma13Base_eval_MatIdNS_3MatIdEEEC2Ev"
 "_ZN4arma13Base_eval_MatIjNS_3MatIjEEEC2Ev"
 "_ZN4arma13Base_extra_noIjNS_13subview_elem1IjNS_3MatIjEEEEEC2Ev"
 "_ZN4arma13Base_extra_noIjNS_3GenINS_3ColIjEENS_9gen_zerosEEEEC2Ev"
 "_ZN4arma13Base_extra_noIjNS_3MatIjEEEC2Ev"
 "_ZN4arma13Base_extra_noIjNS_4mtOpIjNS_11subview_rowIdEENS_14op_find_simpleEEEEC2Ev"
 "_ZN4arma13Base_extra_noIjNS_4mtOpIjNS_13subview_elem1IdNS1_IjNS1_IjNS_3MatIdEENS_14op_rel_gt_postEEENS_14op_find_simpleEEEEENS_14op_rel_lt_postEEEEC2Ev"
 "_ZN4arma13Base_extra_noIjNS_4mtOpIjNS_3ColIdEENS_12op_rel_noteqEEEEC2Ev"
 "_ZN4arma13Base_extra_noIjNS_4mtOpIjNS_3ColIdEENS_13op_sort_indexEEEEC2Ev"
 "_ZN4arma13Base_extra_noIjNS_4mtOpIjNS_3ColIdEENS_14op_rel_gt_postEEEEC2Ev"
 "_ZN4arma13Base_extra_noIjNS_4mtOpIjNS_3ColIdEENS_14op_rel_lt_postEEEEC2Ev"
 "_ZN4arma13Base_extra_noIjNS_4mtOpIjNS_3ColIdEENS_9op_rel_eqEEEEC2Ev"
 "_ZN4arma13Base_extra_noIjNS_4mtOpIjNS_3ColIjEENS_9op_rel_eqEEEEC2Ev"
 "_ZN4arma13Base_extra_noIjNS_4mtOpIjNS_3eOpINS_5eGlueINS_3MatIdEES5_NS_11eglue_minusEEENS_7eop_absEEENS_14op_rel_lt_postEEEEC2Ev"
 "_ZN4arma13Base_extra_noIjNS_4mtOpIjNS_3MatIdEENS_14op_find_finiteEEEEC2Ev"
 "_ZN4arma13Base_extra_noIjNS_4mtOpIjNS_3MatIdEENS_14op_rel_gt_postEEEEC2Ev"
 "_ZN4arma13Base_extra_noIjNS_4mtOpIjNS_3MatIdEENS_17op_find_nonfiniteEEEEC2Ev"
 "_ZN4arma13Base_extra_noIjNS_4mtOpIjNS_3MatIdEENS_9op_rel_eqEEEEC2Ev"
 "_ZN4arma13Base_extra_noIjNS_4mtOpIjNS_3MatIjEENS_6op_allEEEEC2Ev"
 "_ZN4arma13Base_extra_noIjNS_4mtOpIjNS_5eGlueINS1_IjNS_3ColIdEENS_12op_rel_noteqEEES6_NS_10eglue_plusEEENS_14op_find_simpleEEEEC2Ev"
 "_ZN4arma13Base_extra_noIjNS_4mtOpIjNS_6mtGlueIjNS_3ColIdEENS_2OpINS_13subview_elem2IdNS_3MatIjEES8_EENS_9op_htransEEENS_11glue_rel_gtEEENS_14op_find_simpleEEEEC2Ev"
 "_ZN4arma13Base_extra_noIjNS_4mtOpIjNS1_IjNS_3ColIjEENS_9op_rel_eqEEENS_14op_find_simpleEEEEC2Ev"
 "_ZN4arma13Base_extra_noIjNS_4mtOpIjNS1_IjNS_3MatIdEENS_14op_rel_gt_postEEENS_14op_find_simpleEEEEC2Ev"
 "_ZN4arma13Base_extra_noIjNS_4mtOpIjNS1_IjNS_3MatIdEENS_9op_rel_eqEEENS_14op_find_simpleEEEEC2Ev"
 "_ZN4arma13Base_extra_noIjNS_5eGlueINS_4mtOpIjNS_3ColIdEENS_12op_rel_noteqEEES6_NS_10eglue_plusEEEEC2Ev"
 "_ZN4arma13Base_extra_noIjNS_5eGlueINS_4mtOpIjNS_3ColIdEENS_14op_rel_gt_postEEENS2_IjS4_NS_9op_rel_eqEEENS_11eglue_schurEEEEC2Ev"
 "_ZN4arma13Base_extra_noIjNS_5eGlueINS_4mtOpIjNS_3eOpINS1_INS_3MatIdEES5_NS_11eglue_minusEEENS_7eop_absEEENS_14op_rel_lt_postEEENS2_IjS5_NS_14op_rel_gt_postEEENS_11eglue_schurEEEEC2Ev"
 "_ZN4arma13Base_extra_noIjNS_5eGlueINS_4mtOpIjNS_3MatIdEENS_9op_rel_eqEEENS_6mtGlueIjS4_S4_NS_13glue_rel_gteqEEENS_11eglue_schurEEEEC2Ev"
 "_ZN4arma13Base_extra_noIjNS_5eGlueINS1_INS_4mtOpIjNS_3ColIdEENS_14op_rel_gt_postEEENS2_IjS4_NS_9op_rel_eqEEENS_11eglue_schurEEENS2_IjS4_NS_14op_rel_lt_postEEES9_EEEC2Ev"
 "_ZN4arma13Base_extra_noIjNS_5eGlueINS1_INS_4mtOpIjNS_3ColIdEENS_14op_rel_gt_postEEENS2_IjS4_NS_9op_rel_eqEEENS_11eglue_schurEEES6_S9_EEEC2Ev"
 "_ZN4arma13Base_extra_noIjNS_5eGlueINS1_INS_4mtOpIjNS_3eOpINS1_INS_3MatIdEES5_NS_11eglue_minusEEENS_7eop_absEEENS_14op_rel_lt_postEEENS2_IjS5_NS_14op_rel_gt_postEEENS_11eglue_schurEEENS1_INS2_IjS5_NS_9op_rel_eqEEENS_6mtGlueIjS5_S5_NS_13glue_rel_gteqEEESE_EENS_10eglue_plusEEEEC2Ev"
 "_ZN4arma13Base_extra_noIjNS_6mtGlueIjNS_3ColIdEENS_2OpINS_13subview_elem2IdNS_3MatIjEES7_EENS_9op_htransEEENS_11glue_rel_gtEEEEC2Ev"
 "_ZN4arma13Base_extra_noIjNS_6mtGlueIjNS_3MatIdEES3_NS_13glue_rel_gteqEEEEC2Ev"
 "_ZN4arma13Base_extra_noIjNS_7subviewIjEEEC2Ev"
 "_ZN4arma13Base_extra_noIjNS_8diagviewIjEEEC2Ev"
 "_ZN4arma13glue_rel_gteq5applyINS_3MatIdEES3_EEvRNS2_IjEERKNS_6mtGlueIjT_T0_S0_EE"
 "_ZN4arma13gmm_dist_euclC1Ev"
 "_ZN4arma13gmm_dist_mahaC1Ev"
 "_ZN4arma13gmm_dist_modeC2Ej"
 "_ZN4arma13gmm_dist_probC1Ev"
 "_ZN4arma13gmm_seed_modeC2Ej"
 "_ZN4arma13op_sort_index13apply_noaliasINS_3ColIdEEEEbRNS_3MatIjEERKNS_5ProxyIT_EEj"
 "_ZN4arma13op_sort_index5applyINS_3ColIdEEEEvRNS_3MatIjEERKNS_4mtOpIjT_S0_EE"
 "_ZN4arma13subview_each1INS_3MatIdEELj0EED1Ev"
 "_ZN4arma13subview_each1INS_3MatIdEELj1EED1Ev"
 "_ZN4arma13subview_elem1IdNS_3MatIjEEE10inplace_opINS_15op_internal_equEEEvd"
 "_ZN4arma13subview_elem1IdNS_3MatIjEEE10inplace_opINS_15op_internal_equENS1_IdEEEEvRKNS_4BaseIdT0_EE"
 "_ZN4arma13subview_elem1IdNS_3MatIjEEE10inplace_opINS_15op_internal_equES2_EEvRKNS0_IdT0_EE"
 "_ZN4arma13subview_elem1IdNS_3MatIjEEE12operator_equIS2_EEvRKNS0_IdT_EE"
 "_ZN4arma13subview_elem1IdNS_3MatIjEEE5zerosEv"
 "_ZN4arma13subview_elem1IdNS_3MatIjEEE7extractERNS1_IdEERKS3_"
 "_ZN4arma13subview_elem1IdNS_3MatIjEEEaSERKS3_"
 "_ZN4arma13subview_elem1IdNS_3MatIjEEEaSINS1_IdEEEEvRKNS_4BaseIdT_EE"
 "_ZN4arma13subview_elem1IdNS_3MatIjEEED1Ev"
 "_ZN4arma13subview_elem1IdNS_4mtOpIjNS_3MatIdEENS_14op_find_finiteEEEE10inplace_opINS_15op_internal_equEEEvd"
 "_ZN4arma13subview_elem1IdNS_4mtOpIjNS_3MatIdEENS_14op_find_finiteEEEE4onesEv"
 "_ZN4arma13subview_elem1IdNS_4mtOpIjNS_3MatIdEENS_14op_find_finiteEEEED1Ev"
 "_ZN4arma13subview_elem1IdNS_4mtOpIjNS_3MatIdEENS_17op_find_nonfiniteEEEE10inplace_opINS_15op_internal_equEEEvd"
 "_ZN4arma13subview_elem1IdNS_4mtOpIjNS_3MatIdEENS_17op_find_nonfiniteEEEE5zerosEv"
 "_ZN4arma13subview_elem1IdNS_4mtOpIjNS_3MatIdEENS_17op_find_nonfiniteEEEED1Ev"
 "_ZN4arma13subview_elem1IdNS_4mtOpIjNS1_IjNS_3MatIdEENS_14op_rel_gt_postEEENS_14op_find_simpleEEEE10inplace_opINS_15op_internal_equEEEvd"
 "_ZN4arma13subview_elem1IdNS_4mtOpIjNS1_IjNS_3MatIdEENS_14op_rel_gt_postEEENS_14op_find_simpleEEEE10inplace_opINS_15op_internal_equES3_EEvRKNS_4BaseIdT0_EE"
 "_ZN4arma13subview_elem1IdNS_4mtOpIjNS1_IjNS_3MatIdEENS_14op_rel_gt_postEEENS_14op_find_simpleEEEE10inplace_opINS_15op_internal_equES7_EEvRKNS0_IdT0_EE"
 "_ZN4arma13subview_elem1IdNS_4mtOpIjNS1_IjNS_3MatIdEENS_14op_rel_gt_postEEENS_14op_find_simpleEEEE12operator_equIS7_EEvRKNS0_IdT_EE"
 "_ZN4arma13subview_elem1IdNS_4mtOpIjNS1_IjNS_3MatIdEENS_14op_rel_gt_postEEENS_14op_find_simpleEEEE5zerosEv"
 "_ZN4arma13subview_elem1IdNS_4mtOpIjNS1_IjNS_3MatIdEENS_14op_rel_gt_postEEENS_14op_find_simpleEEEE7extractERS3_RKS8_"
 "_ZN4arma13subview_elem1IdNS_4mtOpIjNS1_IjNS_3MatIdEENS_14op_rel_gt_postEEENS_14op_find_simpleEEEEaSERKS8_"
 "_ZN4arma13subview_elem1IdNS_4mtOpIjNS1_IjNS_3MatIdEENS_14op_rel_gt_postEEENS_14op_find_simpleEEEEaSIS3_EEvRKNS_4BaseIdT_EE"
 "_ZN4arma13subview_elem1IdNS_4mtOpIjNS1_IjNS_3MatIdEENS_14op_rel_gt_postEEENS_14op_find_simpleEEEED1Ev"
 "_ZN4arma13subview_elem1IdNS_4mtOpIjNS1_IjNS_3MatIdEENS_9op_rel_eqEEENS_14op_find_simpleEEEE10inplace_opINS_15op_internal_equEEEvd"
 "_ZN4arma13subview_elem1IdNS_4mtOpIjNS1_IjNS_3MatIdEENS_9op_rel_eqEEENS_14op_find_simpleEEEE4fillEd"
 "_ZN4arma13subview_elem1IdNS_4mtOpIjNS1_IjNS_3MatIdEENS_9op_rel_eqEEENS_14op_find_simpleEEEED1Ev"
 "_ZN4arma13subview_elem1IdNS_7subviewIjEEE10inplace_opINS_15op_internal_equENS_13subview_elem2IdNS_3MatIjEES2_EEEEvRKNS_4BaseIdT0_EE"
 "_ZN4arma13subview_elem1IdNS_7subviewIjEEE10inplace_opINS_15op_internal_equENS_3MatIdEEEEvRKNS_4BaseIdT0_EE"
 "_ZN4arma13subview_elem1IdNS_7subviewIjEEEaSINS_13subview_elem2IdNS_3MatIjEES2_EEEEvRKNS_4BaseIdT_EE"
 "_ZN4arma13subview_elem1IdNS_7subviewIjEEEaSINS_3MatIdEEEEvRKNS_4BaseIdT_EE"
 "_ZN4arma13subview_elem1IdNS_7subviewIjEEED1Ev"
 "_ZN4arma13subview_elem1IjNS_3MatIjEEE7extractERS2_RKS3_"
 "_ZN4arma13subview_elem1IjNS_3MatIjEEED1Ev"
 "_ZN4arma13subview_elem2IdNS_3MatIjEENS_7subviewIjEEE7extractERNS1_IdEERKS5_"
 "_ZN4arma13subview_elem2IdNS_3MatIjEENS_7subviewIjEEED1Ev"
 "_ZN4arma13subview_elem2IdNS_3MatIjEES2_E10inplace_opINS_15op_internal_equEEEvd"
 "_ZN4arma13subview_elem2IdNS_3MatIjEES2_E4onesEv"
 "_ZN4arma13subview_elem2IdNS_3MatIjEES2_E7extractERNS1_IdEERKS3_"
 "_ZN4arma13subview_elem2IdNS_3MatIjEES2_ED1Ev"
 "_ZN4arma13subview_elem2IdNS_4mtOpIjNS1_IjNS_3ColIjEENS_9op_rel_eqEEENS_14op_find_simpleEEES7_E10inplace_opINS_15op_internal_equEEEvd"
 "_ZN4arma13subview_elem2IdNS_4mtOpIjNS1_IjNS_3ColIjEENS_9op_rel_eqEEENS_14op_find_simpleEEES7_E4onesEv"
 "_ZN4arma13subview_elem2IdNS_4mtOpIjNS1_IjNS_3ColIjEENS_9op_rel_eqEEENS_14op_find_simpleEEES7_ED1Ev"
 "_ZN4arma13subview_elem2IdNS_7subviewIjEENS_3MatIjEEE7extractERNS3_IdEERKS5_"
 "_ZN4arma13subview_elem2IdNS_7subviewIjEENS_3MatIjEEED1Ev"
 "_ZN4arma14Base_eval_exprIdNS_10xtrans_matIdLb1EEEEC2Ev"
 "_ZN4arma14Base_eval_exprIdNS_13subview_elem1IdNS_3MatIjEEEEEC2Ev"
 "_ZN4arma14Base_eval_exprIdNS_13subview_elem1IdNS_4mtOpIjNS_3MatIdEENS_14op_find_finiteEEEEEEC2Ev"
 "_ZN4arma14Base_eval_exprIdNS_13subview_elem1IdNS_4mtOpIjNS_3MatIdEENS_17op_find_nonfiniteEEEEEEC2Ev"
 "_ZN4arma14Base_eval_exprIdNS_13subview_elem1IdNS_4mtOpIjNS2_IjNS_3MatIdEENS_14op_rel_gt_postEEENS_14op_find_simpleEEEEEEC2Ev"
 "_ZN4arma14Base_eval_exprIdNS_13subview_elem1IdNS_4mtOpIjNS2_IjNS_3MatIdEENS_9op_rel_eqEEENS_14op_find_simpleEEEEEEC2Ev"
 "_ZN4arma14Base_eval_exprIdNS_13subview_elem1IdNS_7subviewIjEEEEEC2Ev"
 "_ZN4arma14Base_eval_exprIdNS_13subview_elem2IdNS_3MatIjEENS_7subviewIjEEEEEC2Ev"
 "_ZN4arma14Base_eval_exprIdNS_13subview_elem2IdNS_3MatIjEES3_EEEC2Ev"
 "_ZN4arma14Base_eval_exprIdNS_13subview_elem2IdNS_4mtOpIjNS2_IjNS_3ColIjEENS_9op_rel_eqEEENS_14op_find_simpleEEES8_EEEC2Ev"
 "_ZN4arma14Base_eval_exprIdNS_13subview_elem2IdNS_7subviewIjEENS_3MatIjEEEEEC2Ev"
 "_ZN4arma14Base_eval_exprIdNS_18subview_row_stransIdEEEC2Ev"
 "_ZN4arma14Base_eval_exprIdNS_2OpINS_11subview_rowIdEENS_9op_htransEEEEC2Ev"
 "_ZN4arma14Base_eval_exprIdNS_2OpINS_13subview_elem2IdNS_3MatIjEES4_EENS_10op_htrans2EEEEC2Ev"
 "_ZN4arma14Base_eval_exprIdNS_2OpINS_13subview_elem2IdNS_3MatIjEES4_EENS_9op_htransEEEEC2Ev"
 "_ZN4arma14Base_eval_exprIdNS_2OpINS_3ColIdEENS_9op_htransEEEEC2Ev"
 "_ZN4arma14Base_eval_exprIdNS_2OpINS_3MatIdEENS_6op_sumEEEEC2Ev"
 "_ZN4arma14Base_eval_exprIdNS_2OpINS_3MatIdEENS_9op_htransEEEEC2Ev"
 "_ZN4arma14Base_eval_exprIdNS_2OpINS_3MatIdEENS_9op_symmatEEEEC2Ev"
 "_ZN4arma14Base_eval_exprIdNS_2OpINS_4GlueINS1_INS_3ColIdEENS_9op_htransEEENS_3MatIdEENS_10glue_timesEEES5_EEEC2Ev"
 "_ZN4arma14Base_eval_exprIdNS_2OpINS1_INS_3MatIdEENS_6op_sumEEENS_9op_htransEEEEC2Ev"
 "_ZN4arma14Base_eval_exprIdNS_3eOpINS_13subview_elem2IdNS_7subviewIjEENS_3MatIjEEEENS_16eop_scalar_timesEEEEC2Ev"
 "_ZN4arma14Base_eval_exprIdNS_3eOpINS_2OpINS_13subview_elem2IdNS_3MatIjEES5_EENS_9op_htransEEENS_16eop_scalar_timesEEEEC2Ev"
 "_ZN4arma14Base_eval_exprIdNS_3eOpINS_3ColIdEENS_18eop_scalar_div_preEEEEC2Ev"
 "_ZN4arma14Base_eval_exprIdNS_3eOpINS_3ColIdEENS_7eop_logEEEEC2Ev"
 "_ZN4arma14Base_eval_exprIdNS_3eOpINS_3ColIdEENS_7eop_negEEEEC2Ev"
 "_ZN4arma14Base_eval_exprIdNS_3eOpINS_3GenINS_3MatIdEENS_9gen_randnEEENS_16eop_scalar_timesEEEEC2Ev"
 "_ZN4arma14Base_eval_exprIdNS_3eOpINS_3MatIdEENS_16eop_scalar_timesEEEEC2Ev"
 "_ZN4arma14Base_eval_exprIdNS_3eOpINS_3MatIdEENS_7eop_logEEEEC2Ev"
 "_ZN4arma14Base_eval_exprIdNS_3eOpINS_3MatIdEENS_8eop_ceilEEEEC2Ev"
 "_ZN4arma14Base_eval_exprIdNS_3eOpINS_5eGlueINS_3MatIdEENS1_IS4_NS_7eop_logEEENS_11eglue_schurEEENS_7eop_expEEEEC2Ev"
 "_ZN4arma14Base_eval_exprIdNS_3eOpINS_5eGlueINS_3MatIdEES4_NS_11eglue_minusEEENS_7eop_absEEEEC2Ev"
 "_ZN4arma14Base_eval_exprIdNS_3eOpINS_5eGlueINS2_INS1_INS1_INS_3MatIdEENS_16eop_scalar_timesEEENS_15eop_scalar_plusEEES6_NS_10eglue_plusEEES4_S9_EENS_7eop_negEEEEC2Ev"
 "_ZN4arma14Base_eval_exprIdNS_3eOpINS1_INS_3MatIdEENS_16eop_scalar_timesEEENS_15eop_scalar_plusEEEEC2Ev"
 "_ZN4arma14Base_eval_exprIdNS_3eOpINS1_INS_5eGlueINS2_INS1_INS1_INS_3MatIdEENS_16eop_scalar_timesEEENS_15eop_scalar_plusEEES6_NS_10eglue_plusEEES4_S9_EENS_7eop_negEEENS_7eop_expEEEEC2Ev"
 "_ZN4arma14Base_eval_exprIdNS_3eOpINS1_INS1_INS_5eGlueINS2_INS1_INS1_INS_3MatIdEENS_16eop_scalar_timesEEENS_15eop_scalar_plusEEES6_NS_10eglue_plusEEES4_S9_EENS_7eop_negEEENS_7eop_expEEES7_EEEC2Ev"
 "_ZN4arma14Base_eval_exprIdNS_3eOpINS1_INS1_INS1_INS_5eGlueINS2_INS1_INS1_INS_3MatIdEENS_16eop_scalar_timesEEENS_15eop_scalar_plusEEES6_NS_10eglue_plusEEES4_S9_EENS_7eop_negEEENS_7eop_expEEES7_EENS_18eop_scalar_div_preEEEEC2Ev"
 "_ZN4arma14Base_eval_exprIdNS_3GenINS_3ColIdEENS_9gen_zerosEEEEC2Ev"
 "_ZN4arma14Base_eval_exprIdNS_3GenINS_3MatIdEENS_9gen_randnEEEEC2Ev"
 "_ZN4arma14Base_eval_exprIdNS_3GenINS_3MatIdEENS_9gen_zerosEEEEC2Ev"
 "_ZN4arma14Base_eval_exprIdNS_4GlueINS_2OpINS_3ColIdEENS_9op_htransEEENS_3MatIdEENS_10glue_timesEEEEC2Ev"
 "_ZN4arma14Base_eval_exprIdNS_4GlueINS_3eOpINS_3ColIdEENS_18eop_scalar_div_preEEENS_2OpIS4_NS_9op_htransEEENS_10glue_timesEEEEC2Ev"
 "_ZN4arma14Base_eval_exprIdNS_4GlueINS_3MatIdEENS_3ColIdEENS_10glue_timesEEEEC2Ev"
 "_ZN4arma14Base_eval_exprIdNS_4GlueINS_3MatIdEES3_NS_10glue_timesEEEEC2Ev"
 "_ZN4arma14Base_eval_exprIdNS_4GlueINS_3RowIdEENS_3eOpINS_3ColIdEENS_7eop_logEEENS_10glue_timesEEEEC2Ev"
 "_ZN4arma14Base_eval_exprIdNS_4GlueINS_5eGlueINS_3MatIdEENS_2OpIS4_NS_9op_htransEEENS_11eglue_minusEEENS_3GenIS4_NS_9gen_zerosEEENS_8glue_maxEEEEC2Ev"
 "_ZN4arma14Base_eval_exprIdNS_4mtOpIdNS_3ColIdEENS_8op_clampEEEEC2Ev"
 "_ZN4arma14Base_eval_exprIdNS_5eGlueINS_11subview_colIdEENS_4mtOpIdNS_3ColIdEENS_8op_clampEEENS_9eglue_divEEEEC2Ev"
 "_ZN4arma14Base_eval_exprIdNS_5eGlueINS_2OpINS_11subview_rowIdEENS_9op_htransEEENS_3ColIdEENS_11eglue_minusEEEEC2Ev"
 "_ZN4arma14Base_eval_exprIdNS_5eGlueINS_2OpINS_13subview_elem2IdNS_3MatIjEES5_EENS_10op_htrans2EEENS_13subview_elem1IdS5_EENS_11eglue_minusEEEEC2Ev"
 "_ZN4arma14Base_eval_exprIdNS_5eGlueINS_2OpINS_3MatIdEENS_6op_sumEEES6_NS_9eglue_divEEEEC2Ev"
 "_ZN4arma14Base_eval_exprIdNS_5eGlueINS_3ColIdEENS_2OpINS4_INS_3MatIdEENS_6op_sumEEENS_9op_htransEEENS_10eglue_plusEEEEC2Ev"
 "_ZN4arma14Base_eval_exprIdNS_5eGlueINS_3ColIdEES3_NS_10eglue_plusEEEEC2Ev"
 "_ZN4arma14Base_eval_exprIdNS_5eGlueINS_3ColIdEES3_NS_11eglue_minusEEEEC2Ev"
 "_ZN4arma14Base_eval_exprIdNS_5eGlueINS_3eOpINS_13subview_elem2IdNS_7subviewIjEENS_3MatIjEEEENS_16eop_scalar_timesEEENS_13subview_elem1IdS5_EENS_11eglue_minusEEEEC2Ev"
 "_ZN4arma14Base_eval_exprIdNS_5eGlueINS_3eOpINS2_INS_3MatIdEENS_16eop_scalar_timesEEENS_15eop_scalar_plusEEES6_NS_10eglue_plusEEEEC2Ev"
 "_ZN4arma14Base_eval_exprIdNS_5eGlueINS_3MatIdEENS_2OpIS3_NS_9op_htransEEENS_10eglue_plusEEEEC2Ev"
 "_ZN4arma14Base_eval_exprIdNS_5eGlueINS_3MatIdEENS_2OpIS3_NS_9op_htransEEENS_11eglue_minusEEEEC2Ev"
 "_ZN4arma14Base_eval_exprIdNS_5eGlueINS_3MatIdEENS_3ColIdEENS_11eglue_schurEEEEC2Ev"
 "_ZN4arma14Base_eval_exprIdNS_5eGlueINS_3MatIdEENS_3eOpIS3_NS_7eop_logEEENS_11eglue_schurEEEEC2Ev"
 "_ZN4arma14Base_eval_exprIdNS_5eGlueINS_3MatIdEES3_NS_11eglue_minusEEEEC2Ev"
 "_ZN4arma14Base_eval_exprIdNS_5eGlueINS1_INS_3ColIdEENS_2OpINS4_INS_3MatIdEENS_6op_sumEEENS_9op_htransEEENS_10eglue_plusEEES8_NS_11eglue_minusEEEEC2Ev"
 "_ZN4arma14Base_eval_exprIdNS_5eGlueINS1_INS_3ColIdEES3_NS_10eglue_plusEEES3_NS_11eglue_minusEEEEC2Ev"
 "_ZN4arma14Base_eval_exprIdNS_5eGlueINS1_INS_3eOpINS2_INS_3MatIdEENS_16eop_scalar_timesEEENS_15eop_scalar_plusEEES6_NS_10eglue_plusEEES4_S9_EEEC2Ev"
 "_ZN4arma14Base_eval_exprIdNS_6mtGlueIdNS_2OpINS_4GlueINS2_INS_3ColIdEENS_9op_htransEEENS_3MatIdEENS_10glue_timesEEES6_EENS4_IjEENS_14glue_mixed_divEEEEC2Ev"
 "_ZN4arma14Base_eval_exprIdNS_7subviewIdEEEC2Ev"
 "_ZN4arma14Base_eval_exprIdNS_8diagviewIdEEEC2Ev"
 "_ZN4arma14Base_eval_exprIjNS_13subview_elem1IjNS_3MatIjEEEEEC2Ev"
 "_ZN4arma14Base_eval_exprIjNS_3GenINS_3ColIjEENS_9gen_zerosEEEEC2Ev"
 "_ZN4arma14Base_eval_exprIjNS_4mtOpIjNS_11subview_rowIdEENS_14op_find_simpleEEEEC2Ev"
 "_ZN4arma14Base_eval_exprIjNS_4mtOpIjNS_13subview_elem1IdNS1_IjNS1_IjNS_3MatIdEENS_14op_rel_gt_postEEENS_14op_find_simpleEEEEENS_14op_rel_lt_postEEEEC2Ev"
 "_ZN4arma14Base_eval_exprIjNS_4mtOpIjNS_3ColIdEENS_12op_rel_noteqEEEEC2Ev"
 "_ZN4arma14Base_eval_exprIjNS_4mtOpIjNS_3ColIdEENS_13op_sort_indexEEEEC2Ev"
 "_ZN4arma14Base_eval_exprIjNS_4mtOpIjNS_3ColIdEENS_14op_rel_gt_postEEEEC2Ev"
 "_ZN4arma14Base_eval_exprIjNS_4mtOpIjNS_3ColIdEENS_14op_rel_lt_postEEEEC2Ev"
 "_ZN4arma14Base_eval_exprIjNS_4mtOpIjNS_3ColIdEENS_9op_rel_eqEEEEC2Ev"
 "_ZN4arma14Base_eval_exprIjNS_4mtOpIjNS_3ColIjEENS_9op_rel_eqEEEEC2Ev"
 "_ZN4arma14Base_eval_exprIjNS_4mtOpIjNS_3eOpINS_5eGlueINS_3MatIdEES5_NS_11eglue_minusEEENS_7eop_absEEENS_14op_rel_lt_postEEEEC2Ev"
 "_ZN4arma14Base_eval_exprIjNS_4mtOpIjNS_3MatIdEENS_14op_find_finiteEEEEC2Ev"
 "_ZN4arma14Base_eval_exprIjNS_4mtOpIjNS_3MatIdEENS_14op_rel_gt_postEEEEC2Ev"
 "_ZN4arma14Base_eval_exprIjNS_4mtOpIjNS_3MatIdEENS_17op_find_nonfiniteEEEEC2Ev"
 "_ZN4arma14Base_eval_exprIjNS_4mtOpIjNS_3MatIdEENS_9op_rel_eqEEEEC2Ev"
 "_ZN4arma14Base_eval_exprIjNS_4mtOpIjNS_3MatIjEENS_6op_allEEEEC2Ev"
 "_ZN4arma14Base_eval_exprIjNS_4mtOpIjNS_5eGlueINS1_IjNS_3ColIdEENS_12op_rel_noteqEEES6_NS_10eglue_plusEEENS_14op_find_simpleEEEEC2Ev"
 "_ZN4arma14Base_eval_exprIjNS_4mtOpIjNS_6mtGlueIjNS_3ColIdEENS_2OpINS_13subview_elem2IdNS_3MatIjEES8_EENS_9op_htransEEENS_11glue_rel_gtEEENS_14op_find_simpleEEEEC2Ev"
 "_ZN4arma14Base_eval_exprIjNS_4mtOpIjNS1_IjNS_3ColIjEENS_9op_rel_eqEEENS_14op_find_simpleEEEEC2Ev"
 "_ZN4arma14Base_eval_exprIjNS_4mtOpIjNS1_IjNS_3MatIdEENS_14op_rel_gt_postEEENS_14op_find_simpleEEEEC2Ev"
 "_ZN4arma14Base_eval_exprIjNS_4mtOpIjNS1_IjNS_3MatIdEENS_9op_rel_eqEEENS_14op_find_simpleEEEEC2Ev"
 "_ZN4arma14Base_eval_exprIjNS_5eGlueINS_4mtOpIjNS_3ColIdEENS_12op_rel_noteqEEES6_NS_10eglue_plusEEEEC2Ev"
 "_ZN4arma14Base_eval_exprIjNS_5eGlueINS_4mtOpIjNS_3ColIdEENS_14op_rel_gt_postEEENS2_IjS4_NS_9op_rel_eqEEENS_11eglue_schurEEEEC2Ev"
 "_ZN4arma14Base_eval_exprIjNS_5eGlueINS_4mtOpIjNS_3eOpINS1_INS_3MatIdEES5_NS_11eglue_minusEEENS_7eop_absEEENS_14op_rel_lt_postEEENS2_IjS5_NS_14op_rel_gt_postEEENS_11eglue_schurEEEEC2Ev"
 "_ZN4arma14Base_eval_exprIjNS_5eGlueINS_4mtOpIjNS_3MatIdEENS_9op_rel_eqEEENS_6mtGlueIjS4_S4_NS_13glue_rel_gteqEEENS_11eglue_schurEEEEC2Ev"
 "_ZN4arma14Base_eval_exprIjNS_5eGlueINS1_INS_4mtOpIjNS_3ColIdEENS_14op_rel_gt_postEEENS2_IjS4_NS_9op_rel_eqEEENS_11eglue_schurEEENS2_IjS4_NS_14op_rel_lt_postEEES9_EEEC2Ev"
 "_ZN4arma14Base_eval_exprIjNS_5eGlueINS1_INS_4mtOpIjNS_3ColIdEENS_14op_rel_gt_postEEENS2_IjS4_NS_9op_rel_eqEEENS_11eglue_schurEEES6_S9_EEEC2Ev"
 "_ZN4arma14Base_eval_exprIjNS_5eGlueINS1_INS_4mtOpIjNS_3eOpINS1_INS_3MatIdEES5_NS_11eglue_minusEEENS_7eop_absEEENS_14op_rel_lt_postEEENS2_IjS5_NS_14op_rel_gt_postEEENS_11eglue_schurEEENS1_INS2_IjS5_NS_9op_rel_eqEEENS_6mtGlueIjS5_S5_NS_13glue_rel_gteqEEESE_EENS_10eglue_plusEEEEC2Ev"
 "_ZN4arma14Base_eval_exprIjNS_6mtGlueIjNS_3ColIdEENS_2OpINS_13subview_elem2IdNS_3MatIjEES7_EENS_9op_htransEEENS_11glue_rel_gtEEEEC2Ev"
 "_ZN4arma14Base_eval_exprIjNS_6mtGlueIjNS_3MatIdEES3_NS_13glue_rel_gteqEEEEC2Ev"
 "_ZN4arma14Base_eval_exprIjNS_7subviewIjEEEC2Ev"
 "_ZN4arma14Base_eval_exprIjNS_8diagviewIjEEEC2Ev"
 "_ZN4arma14Base_extra_yesIdNS_10xtrans_matIdLb1EEEEC2Ev"
 "_ZN4arma14Base_extra_yesIdNS_13subview_elem1IdNS_3MatIjEEEEEC2Ev"
 "_ZN4arma14Base_extra_yesIdNS_13subview_elem1IdNS_4mtOpIjNS_3MatIdEENS_14op_find_finiteEEEEEEC2Ev"
 "_ZN4arma14Base_extra_yesIdNS_13subview_elem1IdNS_4mtOpIjNS_3MatIdEENS_17op_find_nonfiniteEEEEEEC2Ev"
 "_ZN4arma14Base_extra_yesIdNS_13subview_elem1IdNS_4mtOpIjNS2_IjNS_3MatIdEENS_14op_rel_gt_postEEENS_14op_find_simpleEEEEEEC2Ev"
 "_ZN4arma14Base_extra_yesIdNS_13subview_elem1IdNS_4mtOpIjNS2_IjNS_3MatIdEENS_9op_rel_eqEEENS_14op_find_simpleEEEEEEC2Ev"
 "_ZN4arma14Base_extra_yesIdNS_13subview_elem1IdNS_7subviewIjEEEEEC2Ev"
 "_ZN4arma14Base_extra_yesIdNS_13subview_elem2IdNS_3MatIjEENS_7subviewIjEEEEEC2Ev"
 "_ZN4arma14Base_extra_yesIdNS_13subview_elem2IdNS_3MatIjEES3_EEEC2Ev"
 "_ZN4arma14Base_extra_yesIdNS_13subview_elem2IdNS_4mtOpIjNS2_IjNS_3ColIjEENS_9op_rel_eqEEENS_14op_find_simpleEEES8_EEEC2Ev"
 "_ZN4arma14Base_extra_yesIdNS_13subview_elem2IdNS_7subviewIjEENS_3MatIjEEEEEC2Ev"
 "_ZN4arma14Base_extra_yesIdNS_18subview_row_stransIdEEEC2Ev"
 "_ZN4arma14Base_extra_yesIdNS_2OpINS_11subview_rowIdEENS_9op_htransEEEEC2Ev"
 "_ZN4arma14Base_extra_yesIdNS_2OpINS_13subview_elem2IdNS_3MatIjEES4_EENS_10op_htrans2EEEEC2Ev"
 "_ZN4arma14Base_extra_yesIdNS_2OpINS_13subview_elem2IdNS_3MatIjEES4_EENS_9op_htransEEEEC2Ev"
 "_ZN4arma14Base_extra_yesIdNS_2OpINS_3ColIdEENS_9op_htransEEEEC2Ev"
 "_ZN4arma14Base_extra_yesIdNS_2OpINS_3MatIdEENS_6op_sumEEEEC2Ev"
 "_ZN4arma14Base_extra_yesIdNS_2OpINS_3MatIdEENS_9op_htransEEEEC2Ev"
 "_ZN4arma14Base_extra_yesIdNS_2OpINS_3MatIdEENS_9op_symmatEEEEC2Ev"
 "_ZN4arma14Base_extra_yesIdNS_2OpINS_4GlueINS1_INS_3ColIdEENS_9op_htransEEENS_3MatIdEENS_10glue_timesEEES5_EEEC2Ev"
 "_ZN4arma14Base_extra_yesIdNS_2OpINS1_INS_3MatIdEENS_6op_sumEEENS_9op_htransEEEEC2Ev"
 "_ZN4arma14Base_extra_yesIdNS_3eOpINS_13subview_elem2IdNS_7subviewIjEENS_3MatIjEEEENS_16eop_scalar_timesEEEEC2Ev"
 "_ZN4arma14Base_extra_yesIdNS_3eOpINS_2OpINS_13subview_elem2IdNS_3MatIjEES5_EENS_9op_htransEEENS_16eop_scalar_timesEEEEC2Ev"
 "_ZN4arma14Base_extra_yesIdNS_3eOpINS_3ColIdEENS_18eop_scalar_div_preEEEEC2Ev"
 "_ZN4arma14Base_extra_yesIdNS_3eOpINS_3ColIdEENS_7eop_logEEEEC2Ev"
 "_ZN4arma14Base_extra_yesIdNS_3eOpINS_3ColIdEENS_7eop_negEEEEC2Ev"
 "_ZN4arma14Base_extra_yesIdNS_3eOpINS_3GenINS_3MatIdEENS_9gen_randnEEENS_16eop_scalar_timesEEEEC2Ev"
 "_ZN4arma14Base_extra_yesIdNS_3eOpINS_3MatIdEENS_16eop_scalar_timesEEEEC2Ev"
 "_ZN4arma14Base_extra_yesIdNS_3eOpINS_3MatIdEENS_7eop_logEEEEC2Ev"
 "_ZN4arma14Base_extra_yesIdNS_3eOpINS_3MatIdEENS_8eop_ceilEEEEC2Ev"
 "_ZN4arma14Base_extra_yesIdNS_3eOpINS_5eGlueINS_3MatIdEENS1_IS4_NS_7eop_logEEENS_11eglue_schurEEENS_7eop_expEEEEC2Ev"
 "_ZN4arma14Base_extra_yesIdNS_3eOpINS_5eGlueINS_3MatIdEES4_NS_11eglue_minusEEENS_7eop_absEEEEC2Ev"
 "_ZN4arma14Base_extra_yesIdNS_3eOpINS_5eGlueINS2_INS1_INS1_INS_3MatIdEENS_16eop_scalar_timesEEENS_15eop_scalar_plusEEES6_NS_10eglue_plusEEES4_S9_EENS_7eop_negEEEEC2Ev"
 "_ZN4arma14Base_extra_yesIdNS_3eOpINS1_INS_3MatIdEENS_16eop_scalar_timesEEENS_15eop_scalar_plusEEEEC2Ev"
 "_ZN4arma14Base_extra_yesIdNS_3eOpINS1_INS_5eGlueINS2_INS1_INS1_INS_3MatIdEENS_16eop_scalar_timesEEENS_15eop_scalar_plusEEES6_NS_10eglue_plusEEES4_S9_EENS_7eop_negEEENS_7eop_expEEEEC2Ev"
 "_ZN4arma14Base_extra_yesIdNS_3eOpINS1_INS1_INS_5eGlueINS2_INS1_INS1_INS_3MatIdEENS_16eop_scalar_timesEEENS_15eop_scalar_plusEEES6_NS_10eglue_plusEEES4_S9_EENS_7eop_negEEENS_7eop_expEEES7_EEEC2Ev"
 "_ZN4arma14Base_extra_yesIdNS_3eOpINS1_INS1_INS1_INS_5eGlueINS2_INS1_INS1_INS_3MatIdEENS_16eop_scalar_timesEEENS_15eop_scalar_plusEEES6_NS_10eglue_plusEEES4_S9_EENS_7eop_negEEENS_7eop_expEEES7_EENS_18eop_scalar_div_preEEEEC2Ev"
 "_ZN4arma14Base_extra_yesIdNS_3GenINS_3ColIdEENS_9gen_zerosEEEEC2Ev"
 "_ZN4arma14Base_extra_yesIdNS_3GenINS_3MatIdEENS_9gen_randnEEEEC2Ev"
 "_ZN4arma14Base_extra_yesIdNS_3GenINS_3MatIdEENS_9gen_zerosEEEEC2Ev"
 "_ZN4arma14Base_extra_yesIdNS_3MatIdEEEC2Ev"
 "_ZN4arma14Base_extra_yesIdNS_4GlueINS_2OpINS_3ColIdEENS_9op_htransEEENS_3MatIdEENS_10glue_timesEEEEC2Ev"
 "_ZN4arma14Base_extra_yesIdNS_4GlueINS_3eOpINS_3ColIdEENS_18eop_scalar_div_preEEENS_2OpIS4_NS_9op_htransEEENS_10glue_timesEEEEC2Ev"
 "_ZN4arma14Base_extra_yesIdNS_4GlueINS_3MatIdEENS_3ColIdEENS_10glue_timesEEEEC2Ev"
 "_ZN4arma14Base_extra_yesIdNS_4GlueINS_3MatIdEES3_NS_10glue_timesEEEEC2Ev"
 "_ZN4arma14Base_extra_yesIdNS_4GlueINS_3RowIdEENS_3eOpINS_3ColIdEENS_7eop_logEEENS_10glue_timesEEEEC2Ev"
 "_ZN4arma14Base_extra_yesIdNS_4GlueINS_5eGlueINS_3MatIdEENS_2OpIS4_NS_9op_htransEEENS_11eglue_minusEEENS_3GenIS4_NS_9gen_zerosEEENS_8glue_maxEEEEC2Ev"
 "_ZN4arma14Base_extra_yesIdNS_4mtOpIdNS_3ColIdEENS_8op_clampEEEEC2Ev"
 "_ZN4arma14Base_extra_yesIdNS_5eGlueINS_11subview_colIdEENS_4mtOpIdNS_3ColIdEENS_8op_clampEEENS_9eglue_divEEEEC2Ev"
 "_ZN4arma14Base_extra_yesIdNS_5eGlueINS_2OpINS_11subview_rowIdEENS_9op_htransEEENS_3ColIdEENS_11eglue_minusEEEEC2Ev"
 "_ZN4arma14Base_extra_yesIdNS_5eGlueINS_2OpINS_13subview_elem2IdNS_3MatIjEES5_EENS_10op_htrans2EEENS_13subview_elem1IdS5_EENS_11eglue_minusEEEEC2Ev"
 "_ZN4arma14Base_extra_yesIdNS_5eGlueINS_2OpINS_3MatIdEENS_6op_sumEEES6_NS_9eglue_divEEEEC2Ev"
 "_ZN4arma14Base_extra_yesIdNS_5eGlueINS_3ColIdEENS_2OpINS4_INS_3MatIdEENS_6op_sumEEENS_9op_htransEEENS_10eglue_plusEEEEC2Ev"
 "_ZN4arma14Base_extra_yesIdNS_5eGlueINS_3ColIdEES3_NS_10eglue_plusEEEEC2Ev"
 "_ZN4arma14Base_extra_yesIdNS_5eGlueINS_3ColIdEES3_NS_11eglue_minusEEEEC2Ev"
 "_ZN4arma14Base_extra_yesIdNS_5eGlueINS_3eOpINS_13subview_elem2IdNS_7subviewIjEENS_3MatIjEEEENS_16eop_scalar_timesEEENS_13subview_elem1IdS5_EENS_11eglue_minusEEEEC2Ev"
 "_ZN4arma14Base_extra_yesIdNS_5eGlueINS_3eOpINS2_INS_3MatIdEENS_16eop_scalar_timesEEENS_15eop_scalar_plusEEES6_NS_10eglue_plusEEEEC2Ev"
 "_ZN4arma14Base_extra_yesIdNS_5eGlueINS_3MatIdEENS_2OpIS3_NS_9op_htransEEENS_10eglue_plusEEEEC2Ev"
 "_ZN4arma14Base_extra_yesIdNS_5eGlueINS_3MatIdEENS_2OpIS3_NS_9op_htransEEENS_11eglue_minusEEEEC2Ev"
 "_ZN4arma14Base_extra_yesIdNS_5eGlueINS_3MatIdEENS_3ColIdEENS_11eglue_schurEEEEC2Ev"
 "_ZN4arma14Base_extra_yesIdNS_5eGlueINS_3MatIdEENS_3eOpIS3_NS_7eop_logEEENS_11eglue_schurEEEEC2Ev"
 "_ZN4arma14Base_extra_yesIdNS_5eGlueINS_3MatIdEES3_NS_11eglue_minusEEEEC2Ev"
 "_ZN4arma14Base_extra_yesIdNS_5eGlueINS1_INS_3ColIdEENS_2OpINS4_INS_3MatIdEENS_6op_sumEEENS_9op_htransEEENS_10eglue_plusEEES8_NS_11eglue_minusEEEEC2Ev"
 "_ZN4arma14Base_extra_yesIdNS_5eGlueINS1_INS_3ColIdEES3_NS_10eglue_plusEEES3_NS_11eglue_minusEEEEC2Ev"
 "_ZN4arma14Base_extra_yesIdNS_5eGlueINS1_INS_3eOpINS2_INS_3MatIdEENS_16eop_scalar_timesEEENS_15eop_scalar_plusEEES6_NS_10eglue_plusEEES4_S9_EEEC2Ev"
 "_ZN4arma14Base_extra_yesIdNS_6mtGlueIdNS_2OpINS_4GlueINS2_INS_3ColIdEENS_9op_htransEEENS_3MatIdEENS_10glue_timesEEES6_EENS4_IjEENS_14glue_mixed_divEEEEC2Ev"
 "_ZN4arma14Base_extra_yesIdNS_7subviewIdEEEC2Ev"
 "_ZN4arma14Base_extra_yesIdNS_8diagviewIdEEEC2Ev"
 "_ZN4arma14find_nonfiniteINS_3MatIdEEEENS_10enable_if2IXsrNS_12is_arma_typeIT_EE5valueEKNS_4mtOpIjS5_NS_17op_find_nonfiniteEEEE6resultERKS5_"
 "_ZN4arma14GenSpecialiserIdLb0ELb0ELb0ELb1EEC2Ev"
 "_ZN4arma14GenSpecialiserIdLb1ELb0ELb0ELb0EEC2Ev"
 "_ZN4arma14GenSpecialiserIjLb1ELb0ELb0ELb0EEC2Ev"
 "_ZN4arma14glue_mixed_div5applyINS_2OpINS_4GlueINS2_INS_3ColIdEENS_9op_htransEEENS_3MatIdEENS_10glue_timesEEES6_EENS4_IjEEEEvRNS8_INS_11eT_promoterIT_T0_E2eTEEERKNS_6mtGlueISI_SF_SG_S0_EE"
 "_ZN4arma14op_find_finite5applyINS_3MatIdEEEEvRNS2_IjEERKNS_4mtOpIjT_S0_EE"
 "_ZN4arma14op_find_simple5applyINS_11subview_rowIdEEEEvRNS_3MatIjEERKNS_4mtOpIjT_S0_EE"
 "_ZN4arma14op_find_simple5applyINS_4mtOpIjNS_3ColIjEENS_9op_rel_eqEEEEEvRNS_3MatIjEERKNS2_IjT_S0_EE"
 "_ZN4arma14op_find_simple5applyINS_4mtOpIjNS_3MatIdEENS_14op_rel_gt_postEEEEEvRNS3_IjEERKNS2_IjT_S0_EE"
 "_ZN4arma14op_find_simple5applyINS_4mtOpIjNS_3MatIdEENS_9op_rel_eqEEEEEvRNS3_IjEERKNS2_IjT_S0_EE"
 "_ZN4arma14op_find_simple5applyINS_5eGlueINS_4mtOpIjNS_3ColIdEENS_12op_rel_noteqEEES7_NS_10eglue_plusEEEEEvRNS_3MatIjEERKNS3_IjT_S0_EE"
 "_ZN4arma14op_find_simple5applyINS_6mtGlueIjNS_3ColIdEENS_2OpINS_13subview_elem2IdNS_3MatIjEES8_EENS_9op_htransEEENS_11glue_rel_gtEEEEEvRS8_RKNS_4mtOpIjT_S0_EE"
 "_ZN4arma14op_rel_gt_post5applyINS_3ColIdEEEEvRNS_3MatIjEERKNS_4mtOpIjT_S0_EE"
 "_ZN4arma14op_rel_gt_post5applyINS_3MatIdEEEEvRNS2_IjEERKNS_4mtOpIjT_S0_EE"
 "_ZN4arma14op_rel_lt_post5applyINS_3ColIdEEEEvRNS_3MatIjEERKNS_4mtOpIjT_S0_EE"
 "_ZN4arma14op_rel_lt_post5applyINS_3eOpINS_5eGlueINS_3MatIdEES5_NS_11eglue_minusEEENS_7eop_absEEEEEvRNS4_IjEERKNS_4mtOpIjT_S0_EE"
 "_ZN4arma14partial_unwrapINS_2OpINS_3ColIdEENS_9op_htransEEEEC1ERKS5_"
 "_ZN4arma14partial_unwrapINS_3ColIdEEEC1ERKS2_"
 "_ZN4arma14partial_unwrapINS_3eOpINS_3ColIdEENS_18eop_scalar_div_preEEEEC1ERKS5_"
 "_ZN4arma14partial_unwrapINS_3eOpINS_3ColIdEENS_18eop_scalar_div_preEEEED1Ev"
 "_ZN4arma14partial_unwrapINS_3MatIdEEEC1ERKS2_"
 "_ZN4arma14unwrap_defaultINS_13subview_elem2IdNS_3MatIjEES3_EEEC2ERKS4_"
 "_ZN4arma14unwrap_defaultINS_13subview_elem2IdNS_3MatIjEES3_EEED2Ev"
 "_ZN4arma14unwrap_defaultINS_2OpINS_3MatIdEENS_6op_sumEEEEC2ERKS5_"
 "_ZN4arma14unwrap_defaultINS_2OpINS_3MatIdEENS_6op_sumEEEED2Ev"
 "_ZN4arma15get_cerr_streamEv"
 "_ZN4arma16arma_cerr_streamIcEERSoPSo"
 "_ZN4arma16gemm_emul_tinysqILb0ELb0ELb0EE5applyIdNS_3MatIdEES4_EEvRNS3_IT_EERKT0_RKT1_S5_S5_"
 "_ZN4arma16gemv_emul_tinysqILb0ELb0ELb0EE5applyIdNS_3ColIdEEEEvPT_RKT0_PKS5_S5_S5_"
 "_ZN4arma16gemv_emul_tinysqILb0ELb0ELb0EE5applyIdNS_3MatIdEEEEvPT_RKT0_PKS5_S5_S5_"
 "_ZN4arma16gemv_emul_tinysqILb1ELb0ELb0EE5applyIdNS_3ColIdEEEEvPT_RKT0_PKS5_S5_S5_"
 "_ZN4arma16gemv_emul_tinysqILb1ELb0ELb0EE5applyIdNS_3MatIdEEEEvPT_RKT0_PKS5_S5_S5_"
 "_ZN4arma17accu_proxy_linearINS_11subview_rowIdEEEENT_9elem_typeERKNS_5ProxyIS3_EE"
 "_ZN4arma17op_find_nonfinite5applyINS_3MatIdEEEEvRNS2_IjEERKNS_4mtOpIjT_S0_EE"
 "_ZN4arma17subview_each1_aux12operator_divINS_3MatIdEELj0ES3_EENS2_INT_9elem_typeEEERKNS_13subview_each1IS4_XT0_EEERKNS_4BaseIS5_T1_EE"
 "_ZN4arma17subview_each1_aux14operator_schurINS_3MatIdEELj0ENS_3eOpINS_3ColIdEENS_7eop_negEEEEENS2_INT_9elem_typeEEERKNS_13subview_each1IS9_XT0_EEERKNS_4BaseISA_T1_EE"
 "_ZN4arma17subview_each1_aux14operator_schurINS_3MatIdEELj1ENS_2OpINS_3ColIdEENS_9op_htransEEEEENS2_INT_9elem_typeEEERKNS_13subview_each1IS9_XT0_EEERKNS_4BaseISA_T1_EE"
 "_ZN4arma18arma_ostream_stateC1ERKSo"
 "_ZN4arma18as_scalar_redirectILj2EE5applyINS_3RowIdEENS_3eOpINS_3ColIdEENS_7eop_logEEEEENT_9elem_typeERKNS_4GlueISA_T0_NS_10glue_timesEEE"
 "_ZN4arma18Base_trans_defaultINS_10xtrans_matIdLb1EEEEC2Ev"
 "_ZN4arma18Base_trans_defaultINS_13subview_elem1IdNS_3MatIjEEEEEC2Ev"
 "_ZN4arma18Base_trans_defaultINS_13subview_elem1IdNS_4mtOpIjNS_3MatIdEENS_14op_find_finiteEEEEEEC2Ev"
 "_ZN4arma18Base_trans_defaultINS_13subview_elem1IdNS_4mtOpIjNS_3MatIdEENS_17op_find_nonfiniteEEEEEEC2Ev"
 "_ZN4arma18Base_trans_defaultINS_13subview_elem1IdNS_4mtOpIjNS2_IjNS_3MatIdEENS_14op_rel_gt_postEEENS_14op_find_simpleEEEEEEC2Ev"
 "_ZN4arma18Base_trans_defaultINS_13subview_elem1IdNS_4mtOpIjNS2_IjNS_3MatIdEENS_9op_rel_eqEEENS_14op_find_simpleEEEEEEC2Ev"
 "_ZN4arma18Base_trans_defaultINS_13subview_elem1IdNS_7subviewIjEEEEEC2Ev"
 "_ZN4arma18Base_trans_defaultINS_13subview_elem1IjNS_3MatIjEEEEEC2Ev"
 "_ZN4arma18Base_trans_defaultINS_13subview_elem2IdNS_3MatIjEENS_7subviewIjEEEEEC2Ev"
 "_ZN4arma18Base_trans_defaultINS_13subview_elem2IdNS_3MatIjEES3_EEEC2Ev"
 "_ZN4arma18Base_trans_defaultINS_13subview_elem2IdNS_4mtOpIjNS2_IjNS_3ColIjEENS_9op_rel_eqEEENS_14op_find_simpleEEES8_EEEC2Ev"
 "_ZN4arma18Base_trans_defaultINS_13subview_elem2IdNS_7subviewIjEENS_3MatIjEEEEEC2Ev"
 "_ZN4arma18Base_trans_defaultINS_18subview_row_stransIdEEEC2Ev"
 "_ZN4arma18Base_trans_defaultINS_2OpINS_11subview_rowIdEENS_9op_htransEEEEC2Ev"
 "_ZN4arma18Base_trans_defaultINS_2OpINS_13subview_elem2IdNS_3MatIjEES4_EENS_10op_htrans2EEEEC2Ev"
 "_ZN4arma18Base_trans_defaultINS_2OpINS_13subview_elem2IdNS_3MatIjEES4_EENS_9op_htransEEEEC2Ev"
 "_ZN4arma18Base_trans_defaultINS_2OpINS_3ColIdEENS_9op_htransEEEEC2Ev"
 "_ZN4arma18Base_trans_defaultINS_2OpINS_3MatIdEENS_6op_sumEEEEC2Ev"
 "_ZN4arma18Base_trans_defaultINS_2OpINS_3MatIdEENS_9op_htransEEEEC2Ev"
 "_ZN4arma18Base_trans_defaultINS_2OpINS_3MatIdEENS_9op_symmatEEEEC2Ev"
 "_ZN4arma18Base_trans_defaultINS_2OpINS_4GlueINS1_INS_3ColIdEENS_9op_htransEEENS_3MatIdEENS_10glue_timesEEES5_EEEC2Ev"
 "_ZN4arma18Base_trans_defaultINS_2OpINS1_INS_3MatIdEENS_6op_sumEEENS_9op_htransEEEEC2Ev"
 "_ZN4arma18Base_trans_defaultINS_3eOpINS_13subview_elem2IdNS_7subviewIjEENS_3MatIjEEEENS_16eop_scalar_timesEEEEC2Ev"
 "_ZN4arma18Base_trans_defaultINS_3eOpINS_2OpINS_13subview_elem2IdNS_3MatIjEES5_EENS_9op_htransEEENS_16eop_scalar_timesEEEEC2Ev"
 "_ZN4arma18Base_trans_defaultINS_3eOpINS_3ColIdEENS_18eop_scalar_div_preEEEEC2Ev"
 "_ZN4arma18Base_trans_defaultINS_3eOpINS_3ColIdEENS_7eop_logEEEEC2Ev"
 "_ZN4arma18Base_trans_defaultINS_3eOpINS_3ColIdEENS_7eop_negEEEEC2Ev"
 "_ZN4arma18Base_trans_defaultINS_3eOpINS_3GenINS_3MatIdEENS_9gen_randnEEENS_16eop_scalar_timesEEEEC2Ev"
 "_ZN4arma18Base_trans_defaultINS_3eOpINS_3MatIdEENS_16eop_scalar_timesEEEEC2Ev"
 "_ZN4arma18Base_trans_defaultINS_3eOpINS_3MatIdEENS_7eop_logEEEEC2Ev"
 "_ZN4arma18Base_trans_defaultINS_3eOpINS_3MatIdEENS_8eop_ceilEEEEC2Ev"
 "_ZN4arma18Base_trans_defaultINS_3eOpINS_5eGlueINS_3MatIdEENS1_IS4_NS_7eop_logEEENS_11eglue_schurEEENS_7eop_expEEEEC2Ev"
 "_ZN4arma18Base_trans_defaultINS_3eOpINS_5eGlueINS_3MatIdEES4_NS_11eglue_minusEEENS_7eop_absEEEEC2Ev"
 "_ZN4arma18Base_trans_defaultINS_3eOpINS_5eGlueINS2_INS1_INS1_INS_3MatIdEENS_16eop_scalar_timesEEENS_15eop_scalar_plusEEES6_NS_10eglue_plusEEES4_S9_EENS_7eop_negEEEEC2Ev"
 "_ZN4arma18Base_trans_defaultINS_3eOpINS1_INS_3MatIdEENS_16eop_scalar_timesEEENS_15eop_scalar_plusEEEEC2Ev"
 "_ZN4arma18Base_trans_defaultINS_3eOpINS1_INS_5eGlueINS2_INS1_INS1_INS_3MatIdEENS_16eop_scalar_timesEEENS_15eop_scalar_plusEEES6_NS_10eglue_plusEEES4_S9_EENS_7eop_negEEENS_7eop_expEEEEC2Ev"
 "_ZN4arma18Base_trans_defaultINS_3eOpINS1_INS1_INS_5eGlueINS2_INS1_INS1_INS_3MatIdEENS_16eop_scalar_timesEEENS_15eop_scalar_plusEEES6_NS_10eglue_plusEEES4_S9_EENS_7eop_negEEENS_7eop_expEEES7_EEEC2Ev"
 "_ZN4arma18Base_trans_defaultINS_3eOpINS1_INS1_INS1_INS_5eGlueINS2_INS1_INS1_INS_3MatIdEENS_16eop_scalar_timesEEENS_15eop_scalar_plusEEES6_NS_10eglue_plusEEES4_S9_EENS_7eop_negEEENS_7eop_expEEES7_EENS_18eop_scalar_div_preEEEEC2Ev"
 "_ZN4arma18Base_trans_defaultINS_3GenINS_3ColIdEENS_9gen_zerosEEEEC2Ev"
 "_ZN4arma18Base_trans_defaultINS_3GenINS_3ColIjEENS_9gen_zerosEEEEC2Ev"
 "_ZN4arma18Base_trans_defaultINS_3GenINS_3MatIdEENS_9gen_randnEEEEC2Ev"
 "_ZN4arma18Base_trans_defaultINS_3GenINS_3MatIdEENS_9gen_zerosEEEEC2Ev"
 "_ZN4arma18Base_trans_defaultINS_3MatIdEEEC2Ev"
 "_ZN4arma18Base_trans_defaultINS_3MatIjEEEC2Ev"
 "_ZN4arma18Base_trans_defaultINS_4GlueINS_2OpINS_3ColIdEENS_9op_htransEEENS_3MatIdEENS_10glue_timesEEEEC2Ev"
 "_ZN4arma18Base_trans_defaultINS_4GlueINS_3eOpINS_3ColIdEENS_18eop_scalar_div_preEEENS_2OpIS4_NS_9op_htransEEENS_10glue_timesEEEEC2Ev"
 "_ZN4arma18Base_trans_defaultINS_4GlueINS_3MatIdEENS_3ColIdEENS_10glue_timesEEEEC2Ev"
 "_ZN4arma18Base_trans_defaultINS_4GlueINS_3MatIdEES3_NS_10glue_timesEEEEC2Ev"
 "_ZN4arma18Base_trans_defaultINS_4GlueINS_3RowIdEENS_3eOpINS_3ColIdEENS_7eop_logEEENS_10glue_timesEEEEC2Ev"
 "_ZN4arma18Base_trans_defaultINS_4GlueINS_5eGlueINS_3MatIdEENS_2OpIS4_NS_9op_htransEEENS_11eglue_minusEEENS_3GenIS4_NS_9gen_zerosEEENS_8glue_maxEEEEC2Ev"
 "_ZN4arma18Base_trans_defaultINS_4mtOpIdNS_3ColIdEENS_8op_clampEEEEC2Ev"
 "_ZN4arma18Base_trans_defaultINS_4mtOpIjNS_11subview_rowIdEENS_14op_find_simpleEEEEC2Ev"
 "_ZN4arma18Base_trans_defaultINS_4mtOpIjNS_13subview_elem1IdNS1_IjNS1_IjNS_3MatIdEENS_14op_rel_gt_postEEENS_14op_find_simpleEEEEENS_14op_rel_lt_postEEEEC2Ev"
 "_ZN4arma18Base_trans_defaultINS_4mtOpIjNS_3ColIdEENS_12op_rel_noteqEEEEC2Ev"
 "_ZN4arma18Base_trans_defaultINS_4mtOpIjNS_3ColIdEENS_13op_sort_indexEEEEC2Ev"
 "_ZN4arma18Base_trans_defaultINS_4mtOpIjNS_3ColIdEENS_14op_rel_gt_postEEEEC2Ev"
 "_ZN4arma18Base_trans_defaultINS_4mtOpIjNS_3ColIdEENS_14op_rel_lt_postEEEEC2Ev"
 "_ZN4arma18Base_trans_defaultINS_4mtOpIjNS_3ColIdEENS_9op_rel_eqEEEEC2Ev"
 "_ZN4arma18Base_trans_defaultINS_4mtOpIjNS_3ColIjEENS_9op_rel_eqEEEEC2Ev"
 "_ZN4arma18Base_trans_defaultINS_4mtOpIjNS_3eOpINS_5eGlueINS_3MatIdEES5_NS_11eglue_minusEEENS_7eop_absEEENS_14op_rel_lt_postEEEEC2Ev"
 "_ZN4arma18Base_trans_defaultINS_4mtOpIjNS_3MatIdEENS_14op_find_finiteEEEEC2Ev"
 "_ZN4arma18Base_trans_defaultINS_4mtOpIjNS_3MatIdEENS_14op_rel_gt_postEEEEC2Ev"
 "_ZN4arma18Base_trans_defaultINS_4mtOpIjNS_3MatIdEENS_17op_find_nonfiniteEEEEC2Ev"
 "_ZN4arma18Base_trans_defaultINS_4mtOpIjNS_3MatIdEENS_9op_rel_eqEEEEC2Ev"
 "_ZN4arma18Base_trans_defaultINS_4mtOpIjNS_3MatIjEENS_6op_allEEEEC2Ev"
 "_ZN4arma18Base_trans_defaultINS_4mtOpIjNS_5eGlueINS1_IjNS_3ColIdEENS_12op_rel_noteqEEES6_NS_10eglue_plusEEENS_14op_find_simpleEEEEC2Ev"
 "_ZN4arma18Base_trans_defaultINS_4mtOpIjNS_6mtGlueIjNS_3ColIdEENS_2OpINS_13subview_elem2IdNS_3MatIjEES8_EENS_9op_htransEEENS_11glue_rel_gtEEENS_14op_find_simpleEEEEC2Ev"
 "_ZN4arma18Base_trans_defaultINS_4mtOpIjNS1_IjNS_3ColIjEENS_9op_rel_eqEEENS_14op_find_simpleEEEEC2Ev"
 "_ZN4arma18Base_trans_defaultINS_4mtOpIjNS1_IjNS_3MatIdEENS_14op_rel_gt_postEEENS_14op_find_simpleEEEEC2Ev"
 "_ZN4arma18Base_trans_defaultINS_4mtOpIjNS1_IjNS_3MatIdEENS_9op_rel_eqEEENS_14op_find_simpleEEEEC2Ev"
 "_ZN4arma18Base_trans_defaultINS_5eGlueINS_11subview_colIdEENS_4mtOpIdNS_3ColIdEENS_8op_clampEEENS_9eglue_divEEEEC2Ev"
 "_ZN4arma18Base_trans_defaultINS_5eGlueINS_2OpINS_11subview_rowIdEENS_9op_htransEEENS_3ColIdEENS_11eglue_minusEEEEC2Ev"
 "_ZN4arma18Base_trans_defaultINS_5eGlueINS_2OpINS_13subview_elem2IdNS_3MatIjEES5_EENS_10op_htrans2EEENS_13subview_elem1IdS5_EENS_11eglue_minusEEEEC2Ev"
 "_ZN4arma18Base_trans_defaultINS_5eGlueINS_2OpINS_3MatIdEENS_6op_sumEEES6_NS_9eglue_divEEEEC2Ev"
 "_ZN4arma18Base_trans_defaultINS_5eGlueINS_3ColIdEENS_2OpINS4_INS_3MatIdEENS_6op_sumEEENS_9op_htransEEENS_10eglue_plusEEEEC2Ev"
 "_ZN4arma18Base_trans_defaultINS_5eGlueINS_3ColIdEES3_NS_10eglue_plusEEEEC2Ev"
 "_ZN4arma18Base_trans_defaultINS_5eGlueINS_3ColIdEES3_NS_11eglue_minusEEEEC2Ev"
 "_ZN4arma18Base_trans_defaultINS_5eGlueINS_3eOpINS_13subview_elem2IdNS_7subviewIjEENS_3MatIjEEEENS_16eop_scalar_timesEEENS_13subview_elem1IdS5_EENS_11eglue_minusEEEEC2Ev"
 "_ZN4arma18Base_trans_defaultINS_5eGlueINS_3eOpINS2_INS_3MatIdEENS_16eop_scalar_timesEEENS_15eop_scalar_plusEEES6_NS_10eglue_plusEEEEC2Ev"
 "_ZN4arma18Base_trans_defaultINS_5eGlueINS_3MatIdEENS_2OpIS3_NS_9op_htransEEENS_10eglue_plusEEEEC2Ev"
 "_ZN4arma18Base_trans_defaultINS_5eGlueINS_3MatIdEENS_2OpIS3_NS_9op_htransEEENS_11eglue_minusEEEEC2Ev"
 "_ZN4arma18Base_trans_defaultINS_5eGlueINS_3MatIdEENS_3ColIdEENS_11eglue_schurEEEEC2Ev"
 "_ZN4arma18Base_trans_defaultINS_5eGlueINS_3MatIdEENS_3eOpIS3_NS_7eop_logEEENS_11eglue_schurEEEEC2Ev"
 "_ZN4arma18Base_trans_defaultINS_5eGlueINS_3MatIdEES3_NS_11eglue_minusEEEEC2Ev"
 "_ZN4arma18Base_trans_defaultINS_5eGlueINS_4mtOpIjNS_3ColIdEENS_12op_rel_noteqEEES6_NS_10eglue_plusEEEEC2Ev"
 "_ZN4arma18Base_trans_defaultINS_5eGlueINS_4mtOpIjNS_3ColIdEENS_14op_rel_gt_postEEENS2_IjS4_NS_9op_rel_eqEEENS_11eglue_schurEEEEC2Ev"
 "_ZN4arma18Base_trans_defaultINS_5eGlueINS_4mtOpIjNS_3eOpINS1_INS_3MatIdEES5_NS_11eglue_minusEEENS_7eop_absEEENS_14op_rel_lt_postEEENS2_IjS5_NS_14op_rel_gt_postEEENS_11eglue_schurEEEEC2Ev"
 "_ZN4arma18Base_trans_defaultINS_5eGlueINS_4mtOpIjNS_3MatIdEENS_9op_rel_eqEEENS_6mtGlueIjS4_S4_NS_13glue_rel_gteqEEENS_11eglue_schurEEEEC2Ev"
 "_ZN4arma18Base_trans_defaultINS_5eGlueINS1_INS_3ColIdEENS_2OpINS4_INS_3MatIdEENS_6op_sumEEENS_9op_htransEEENS_10eglue_plusEEES8_NS_11eglue_minusEEEEC2Ev"
 "_ZN4arma18Base_trans_defaultINS_5eGlueINS1_INS_3ColIdEES3_NS_10eglue_plusEEES3_NS_11eglue_minusEEEEC2Ev"
 "_ZN4arma18Base_trans_defaultINS_5eGlueINS1_INS_3eOpINS2_INS_3MatIdEENS_16eop_scalar_timesEEENS_15eop_scalar_plusEEES6_NS_10eglue_plusEEES4_S9_EEEC2Ev"
 "_ZN4arma18Base_trans_defaultINS_5eGlueINS1_INS_4mtOpIjNS_3ColIdEENS_14op_rel_gt_postEEENS2_IjS4_NS_9op_rel_eqEEENS_11eglue_schurEEENS2_IjS4_NS_14op_rel_lt_postEEES9_EEEC2Ev"
 "_ZN4arma18Base_trans_defaultINS_5eGlueINS1_INS_4mtOpIjNS_3ColIdEENS_14op_rel_gt_postEEENS2_IjS4_NS_9op_rel_eqEEENS_11eglue_schurEEES6_S9_EEEC2Ev"
 "_ZN4arma18Base_trans_defaultINS_5eGlueINS1_INS_4mtOpIjNS_3eOpINS1_INS_3MatIdEES5_NS_11eglue_minusEEENS_7eop_absEEENS_14op_rel_lt_postEEENS2_IjS5_NS_14op_rel_gt_postEEENS_11eglue_schurEEENS1_INS2_IjS5_NS_9op_rel_eqEEENS_6mtGlueIjS5_S5_NS_13glue_rel_gteqEEESE_EENS_10eglue_plusEEEEC2Ev"
 "_ZN4arma18Base_trans_defaultINS_6mtGlueIdNS_2OpINS_4GlueINS2_INS_3ColIdEENS_9op_htransEEENS_3MatIdEENS_10glue_timesEEES6_EENS4_IjEENS_14glue_mixed_divEEEEC2Ev"
 "_ZN4arma18Base_trans_defaultINS_6mtGlueIjNS_3ColIdEENS_2OpINS_13subview_elem2IdNS_3MatIjEES7_EENS_9op_htransEEENS_11glue_rel_gtEEEEC2Ev"
 "_ZN4arma18Base_trans_defaultINS_6mtGlueIjNS_3MatIdEES3_NS_13glue_rel_gteqEEEEC2Ev"
 "_ZN4arma18Base_trans_defaultINS_7subviewIdEEEC2Ev"
 "_ZN4arma18Base_trans_defaultINS_7subviewIjEEEC2Ev"
 "_ZN4arma18Base_trans_defaultINS_8diagviewIdEEEC2Ev"
 "_ZN4arma18Base_trans_defaultINS_8diagviewIjEEEC2Ev"
 "_ZN4arma18subview_row_stransIdEC1ERKNS_11subview_rowIdEE"
 "_ZN4arma18unwrap_check_mixedINS_3MatIjEEEC1IdEERKS2_RKNS1_IT_EE"
 "_ZN4arma18unwrap_check_mixedINS_3MatIjEEEC1IjEERKS2_RKNS1_IT_EE"
 "_ZN4arma18unwrap_check_mixedINS_3MatIjEEED1Ev"
 "_ZN4arma18unwrap_check_mixedINS_4mtOpIjNS_3MatIdEENS_14op_find_finiteEEEEC1IdEERKS5_RKNS2_IT_EE"
 "_ZN4arma18unwrap_check_mixedINS_4mtOpIjNS_3MatIdEENS_14op_find_finiteEEEED1Ev"
 "_ZN4arma18unwrap_check_mixedINS_4mtOpIjNS_3MatIdEENS_17op_find_nonfiniteEEEEC1IdEERKS5_RKNS2_IT_EE"
 "_ZN4arma18unwrap_check_mixedINS_4mtOpIjNS_3MatIdEENS_17op_find_nonfiniteEEEED1Ev"
 "_ZN4arma18unwrap_check_mixedINS_4mtOpIjNS1_IjNS_3ColIjEENS_9op_rel_eqEEENS_14op_find_simpleEEEEC1IdEERKS7_RKNS_3MatIT_EE"
 "_ZN4arma18unwrap_check_mixedINS_4mtOpIjNS1_IjNS_3ColIjEENS_9op_rel_eqEEENS_14op_find_simpleEEEED1Ev"
 "_ZN4arma18unwrap_check_mixedINS_4mtOpIjNS1_IjNS_3MatIdEENS_14op_rel_gt_postEEENS_14op_find_simpleEEEEC1IdEERKS7_RKNS2_IT_EE"
 "_ZN4arma18unwrap_check_mixedINS_4mtOpIjNS1_IjNS_3MatIdEENS_14op_rel_gt_postEEENS_14op_find_simpleEEEED1Ev"
 "_ZN4arma18unwrap_check_mixedINS_4mtOpIjNS1_IjNS_3MatIdEENS_9op_rel_eqEEENS_14op_find_simpleEEEEC1IdEERKS7_RKNS2_IT_EE"
 "_ZN4arma18unwrap_check_mixedINS_4mtOpIjNS1_IjNS_3MatIdEENS_9op_rel_eqEEENS_14op_find_simpleEEEED1Ev"
 "_ZN4arma18unwrap_check_mixedINS_7subviewIjEEEC1IdEERKS2_RKNS_3MatIT_EE"
 "_ZN4arma18unwrap_check_mixedINS_7subviewIjEEED1Ev"
 "_ZN4arma19glue_times_redirectILj2EE5applyINS_2OpINS_3ColIdEENS_9op_htransEEENS_3MatIdEEEEvRNS8_INT_9elem_typeEEERKNS_4GlueISA_T0_NS_10glue_timesEEE"
 "_ZN4arma19glue_times_redirectILj2EE5applyINS_3eOpINS_3ColIdEENS_18eop_scalar_div_preEEENS_2OpIS5_NS_9op_htransEEEEEvRNS_3MatINT_9elem_typeEEERKNS_4GlueISC_T0_NS_10glue_timesEEE"
 "_ZN4arma19glue_times_redirectILj2EE5applyINS_3MatIdEENS_3ColIdEEEEvRNS3_INT_9elem_typeEEERKNS_4GlueIS7_T0_NS_10glue_timesEEE"
 "_ZN4arma19glue_times_redirectILj2EE5applyINS_3MatIdEES4_EEvRNS3_INT_9elem_typeEEERKNS_4GlueIS5_T0_NS_10glue_timesEEE"
 "_ZN4arma19Proxy_xtrans_vectorINS_2OpINS_3ColIdEENS_9op_htransEEEEC2ERKS5_"
 "_ZN4arma19Proxy_xtrans_vectorINS_2OpINS_3ColIdEENS_9op_htransEEEED2Ev"
 "_ZN4arma19Proxy_xtrans_vectorINS_2OpINS_4GlueINS1_INS_3ColIdEENS_9op_htransEEENS_3MatIdEENS_10glue_timesEEES5_EEEC2ERKSB_"
 "_ZN4arma19Proxy_xtrans_vectorINS_2OpINS_4GlueINS1_INS_3ColIdEENS_9op_htransEEENS_3MatIdEENS_10glue_timesEEES5_EEED2Ev"
 "_ZN4arma20arma_check_bad_allocIA39_cEEvbRKT_"
 "_ZN4arma20Proxy_xtrans_defaultINS_2OpINS_13subview_elem2IdNS_3MatIjEES4_EENS_9op_htransEEEEC2ERKS7_"
 "_ZN4arma20Proxy_xtrans_defaultINS_2OpINS_13subview_elem2IdNS_3MatIjEES4_EENS_9op_htransEEEED2Ev"
 "_ZN4arma20Proxy_xtrans_defaultINS_2OpINS_3MatIdEENS_9op_htransEEEEC2ERKS5_"
 "_ZN4arma20Proxy_xtrans_defaultINS_2OpINS_3MatIdEENS_9op_htransEEEED2Ev"
 "_ZN4arma20Proxy_xtrans_defaultINS_2OpINS1_INS_3MatIdEENS_6op_sumEEENS_9op_htransEEEEC2ERKS7_"
 "_ZN4arma20Proxy_xtrans_defaultINS_2OpINS1_INS_3MatIdEENS_6op_sumEEENS_9op_htransEEEED2Ev"
 "_ZN4arma20quasi_unwrap_defaultINS_3eOpINS_3ColIdEENS_7eop_negEEEEC2ERKS5_"
 "_ZN4arma20quasi_unwrap_defaultINS_3eOpINS_3ColIdEENS_7eop_negEEEED2Ev"
 "_ZN4arma20quasi_unwrap_defaultINS_4GlueINS_2OpINS_3ColIdEENS_9op_htransEEENS_3MatIdEENS_10glue_timesEEEEC2ERKSA_"
 "_ZN4arma20quasi_unwrap_defaultINS_4GlueINS_2OpINS_3ColIdEENS_9op_htransEEENS_3MatIdEENS_10glue_timesEEEED2Ev"
 "_ZN4arma21arma_assert_blas_sizeINS_3ColIdEEEEvRKT_"
 "_ZN4arma21arma_assert_blas_sizeINS_3MatIdEEEEvRKT_"
 "_ZN4arma21arma_assert_blas_sizeINS_3MatIdEENS_3ColIdEEEEvRKT_RKT0_"
 "_ZN4arma21arma_assert_blas_sizeINS_3MatIdEES2_EEvRKT_RKT0_"
 "_ZN4arma21arma_assert_same_sizeIddEEvRKNS_3MatIT_EERKNS1_IT0_EEPKc"
 "_ZN4arma21arma_assert_same_sizeIdNS_2OpINS_3ColIdEENS_9op_htransEEEEEvRKNS_7subviewIT_EERKNS_5ProxyIT0_EEPKc"
 "_ZN4arma21arma_assert_same_sizeIdNS_3MatIdEEEEvRKNS_7subviewIT_EERKNS_5ProxyIT0_EEPKc"
 "_ZN4arma21arma_assert_same_sizeIjNS_3MatIjEEEEvRKNS_7subviewIT_EERKNS_5ProxyIT0_EEPKc"
 "_ZN4arma21arma_assert_same_sizeINS_2OpINS_4GlueINS1_INS_3ColIdEENS_9op_htransEEENS_3MatIdEENS_10glue_timesEEES5_EENS3_IjEEEEvRKNS_5ProxyIT_EERKNSD_IT0_EEPKc"
 "_ZN4arma21arma_assert_same_sizeINS_3ColIdEENS_2OpINS_13subview_elem2IdNS_3MatIjEES6_EENS_9op_htransEEEEEvRKNS_5ProxyIT_EERKNSA_IT0_EEPKc"
 "_ZN4arma21arma_assert_same_sizeINS_3MatIdEES2_EEvRKNS_5ProxyIT_EERKNS3_IT0_EEPKc"
 "_ZN4arma22arma_sort_index_helperINS_3ColIdEELb0EEEbRNS_3MatIjEERKNS_5ProxyIT_EEj"
 "_ZN4arma22gmm_seed_keep_existingC1Ev"
 "_ZN4arma22gmm_seed_random_spreadC1Ev"
 "_ZN4arma22gmm_seed_random_subsetC1Ev"
 "_ZN4arma22gmm_seed_static_spreadC1Ev"
 "_ZN4arma22gmm_seed_static_subsetC1Ev"
 "_ZN4arma22partial_unwrap_defaultINS_3eOpINS_3ColIdEENS_18eop_scalar_div_preEEEEC2ERKS5_"
 "_ZN4arma22partial_unwrap_defaultINS_3eOpINS_3ColIdEENS_18eop_scalar_div_preEEEED2Ev"
 "_ZN4arma23quasi_unwrap_Col_htransINS_2OpINS_3ColIdEENS_9op_htransEEEEC2ERKS5_"
 "_ZN4arma23quasi_unwrap_Col_htransINS_2OpINS_3ColIdEENS_9op_htransEEEED2Ev"
 "_ZN4arma26arma_assert_trans_mul_sizeILb0ELb0EEEvjjjjPKc"
 "_ZN4arma26arma_assert_trans_mul_sizeILb0ELb1EEEvjjjjPKc"
 "_ZN4arma26arma_assert_trans_mul_sizeILb1ELb0EEEvjjjjPKc"
 "_ZN4arma27glue_times_redirect2_helperILb0EE5applyINS_2OpINS_3ColIdEENS_9op_htransEEENS_3MatIdEEEEvRNS8_INT_9elem_typeEEERKNS_4GlueISA_T0_NS_10glue_timesEEE"
 "_ZN4arma27glue_times_redirect2_helperILb0EE5applyINS_3eOpINS_3ColIdEENS_18eop_scalar_div_preEEENS_2OpIS5_NS_9op_htransEEEEEvRNS_3MatINT_9elem_typeEEERKNS_4GlueISC_T0_NS_10glue_timesEEE"
 "_ZN4arma27glue_times_redirect2_helperILb0EE5applyINS_3MatIdEENS_3ColIdEEEEvRNS3_INT_9elem_typeEEERKNS_4GlueIS7_T0_NS_10glue_timesEEE"
 "_ZN4arma27glue_times_redirect2_helperILb0EE5applyINS_3MatIdEES4_EEvRNS3_INT_9elem_typeEEERKNS_4GlueIS5_T0_NS_10glue_timesEEE"
 "_ZN4arma27glue_times_redirect2_helperILb1EE5applyINS_2OpINS_3ColIdEENS_9op_htransEEENS_3MatIdEEEEvRNS8_INT_9elem_typeEEERKNS_4GlueISA_T0_NS_10glue_timesEEE"
 "_ZN4arma27glue_times_redirect2_helperILb1EE5applyINS_3eOpINS_3ColIdEENS_18eop_scalar_div_preEEENS_2OpIS5_NS_9op_htransEEEEEvRNS_3MatINT_9elem_typeEEERKNS_4GlueISC_T0_NS_10glue_timesEEE"
 "_ZN4arma27glue_times_redirect2_helperILb1EE5applyINS_3MatIdEENS_3ColIdEEEEvRNS3_INT_9elem_typeEEERKNS_4GlueIS7_T0_NS_10glue_timesEEE"
 "_ZN4arma27glue_times_redirect2_helperILb1EE5applyINS_3MatIdEES4_EEvRNS3_INT_9elem_typeEEERKNS_4GlueIS5_T0_NS_10glue_timesEEE"
 "_ZN4arma28internal_approx_equal_workerILb0ELb1ENS_2OpINS_3ColIdEENS_9op_htransEEENS_7subviewIdEEEEbRKNS_4BaseINT1_9elem_typeES9_EERKNS8_ISA_T2_EENS9_8pod_typeESI_"
 "_ZN4arma28internal_approx_equal_workerILb1ELb0ENS_2OpINS_3ColIdEENS_9op_htransEEENS_7subviewIdEEEEbRKNS_4BaseINT1_9elem_typeES9_EERKNS8_ISA_T2_EENS9_8pod_typeESI_"
 "_ZN4arma29internal_approx_equal_handlerINS_2OpINS_3ColIdEENS_9op_htransEEENS_7subviewIdEEEEbRKT_RKT0_PKcNS8_8pod_typeE"
 "_ZN4arma2OpINS_11subview_rowIdEENS_9op_htransEEC1ERKS2_"
 "_ZN4arma2OpINS_11subview_rowIdEENS_9op_htransEED1Ev"
 "_ZN4arma2OpINS_13subview_elem2IdNS_3MatIjEES3_EENS_10op_htrans2EEC1ERKS4_d"
 "_ZN4arma2OpINS_13subview_elem2IdNS_3MatIjEES3_EENS_10op_htrans2EED1Ev"
 "_ZN4arma2OpINS_13subview_elem2IdNS_3MatIjEES3_EENS_9op_htransEEC1ERKS4_"
 "_ZN4arma2OpINS_13subview_elem2IdNS_3MatIjEES3_EENS_9op_htransEED1Ev"
 "_ZN4arma2OpINS_3ColIdEENS_9op_htransEEC1ERKS2_"
 "_ZN4arma2OpINS_3ColIdEENS_9op_htransEED1Ev"
 "_ZN4arma2OpINS_3MatIdEENS_6op_sumEEC1ERKS2_jj"
 "_ZN4arma2OpINS_3MatIdEENS_6op_sumEED1Ev"
 "_ZN4arma2OpINS_3MatIdEENS_9op_htransEEC1ERKS2_"
 "_ZN4arma2OpINS_3MatIdEENS_9op_htransEED1Ev"
 "_ZN4arma2OpINS_3MatIdEENS_9op_symmatEEC1ERKS2_jj"
 "_ZN4arma2OpINS_3MatIdEENS_9op_symmatEED1Ev"
 "_ZN4arma2OpINS_4GlueINS0_INS_3ColIdEENS_9op_htransEEENS_3MatIdEENS_10glue_timesEEES4_EC1ERKS9_"
 "_ZN4arma2OpINS_4GlueINS0_INS_3ColIdEENS_9op_htransEEENS_3MatIdEENS_10glue_timesEEES4_ED1Ev"
 "_ZN4arma2OpINS0_INS_3MatIdEENS_6op_sumEEENS_9op_htransEEC1ERKS4_"
 "_ZN4arma2OpINS0_INS_3MatIdEENS_6op_sumEEENS_9op_htransEED1Ev"
 "_ZN4arma31Proxy_subview_row_htrans_non_cxIdEC2ERKNS_2OpINS_11subview_rowIdEENS_9op_htransEEE"
 "_ZN4arma3allINS_4mtOpIjNS_3MatIjEENS_6op_allEEEEENS_10enable_if2IXaasrNS_12is_arma_typeIT_EE5valuesrNS_18resolves_to_vectorIS8_EE3yesEbE6resultERKS8_"
 "_ZN4arma3anyINS_4mtOpIjNS_13subview_elem1IdNS1_IjNS1_IjNS_3MatIdEENS_14op_rel_gt_postEEENS_14op_find_simpleEEEEENS_14op_rel_lt_postEEEEENS_10enable_if2IXaasrNS_12is_arma_typeIT_EE5valuesrNS_18resolves_to_vectorISE_EE3yesEbE6resultERKSE_"
 "_ZN4arma3anyINS_5eGlueINS1_INS_4mtOpIjNS_3ColIdEENS_14op_rel_gt_postEEENS2_IjS4_NS_9op_rel_eqEEENS_11eglue_schurEEENS2_IjS4_NS_14op_rel_lt_postEEES9_EEEENS_10enable_if2IXaasrNS_12is_arma_typeIT_EE5valuesrNS_18resolves_to_vectorISG_EE3yesEbE6resultERKSG_"
 "_ZN4arma3anyINS_5eGlueINS1_INS_4mtOpIjNS_3ColIdEENS_14op_rel_gt_postEEENS2_IjS4_NS_9op_rel_eqEEENS_11eglue_schurEEES6_S9_EEEENS_10enable_if2IXaasrNS_12is_arma_typeIT_EE5valuesrNS_18resolves_to_vectorISE_EE3yesEbE6resultERKSE_"
 "_ZN4arma3ColIdEaSINS_2OpINS_3MatIdEENS_6op_sumEEEEERS1_RKNS_4BaseIdT_EE"
 "_ZN4arma3ColIdEaSINS_2OpINS3_INS_3MatIdEENS_6op_sumEEENS_9op_htransEEEEERS1_RKNS_4BaseIdT_EE"
 "_ZN4arma3ColIdEaSINS_5eGlueINS_2OpINS_13subview_elem2IdNS_3MatIjEES7_EENS_10op_htrans2EEENS_13subview_elem1IdS7_EENS_11eglue_minusEEEEERS1_RKNS_4BaseIdT_EE"
 "_ZN4arma3ColIdEaSINS_5eGlueINS_3eOpINS_13subview_elem2IdNS_7subviewIjEENS_3MatIjEEEENS_16eop_scalar_timesEEENS_13subview_elem1IdS7_EENS_11eglue_minusEEEEERS1_RKNS_4BaseIdT_EE"
 "_ZN4arma3ColIdEaSINS_5eGlueINS3_IS1_NS_2OpINS4_INS_3MatIdEENS_6op_sumEEENS_9op_htransEEENS_10eglue_plusEEES8_NS_11eglue_minusEEEEERS1_RKNS_4BaseIdT_EE"
 "_ZN4arma3ColIdEC1Ev"
 "_ZN4arma3ColIdEC1INS_2OpINS_3MatIdEENS_6op_sumEEEEERKNS_4BaseIdT_EE"
 "_ZN4arma3ColIdEC1INS_2OpINS_3MatIdEENS_9op_htransEEEEERKNS_4BaseIdT_EE"
 "_ZN4arma3ColIdEC1INS_2OpINS3_INS_3MatIdEENS_6op_sumEEENS_9op_htransEEEEERKNS_4BaseIdT_EE"
 "_ZN4arma3ColIdEC1INS_3GenIS1_NS_9gen_zerosEEEEERKNS_4BaseIdT_EE"
 "_ZN4arma3ColIdEC1INS_3MatIdEEEERKNS_4BaseIdT_EE"
 "_ZN4arma3ColIdEC1INS_5eGlueINS_11subview_colIdEENS_4mtOpIdS1_NS_8op_clampEEENS_9eglue_divEEEEERKNS_4BaseIdT_EE"
 "_ZN4arma3ColIdEC1INS_5eGlueINS_3MatIdEES1_NS_11eglue_schurEEEEERKNS_4BaseIdT_EE"
 "_ZN4arma3ColIdEC1INS_5eGlueINS3_IS1_NS_2OpINS4_INS_3MatIdEENS_6op_sumEEENS_9op_htransEEENS_10eglue_plusEEES8_NS_11eglue_minusEEEEERKNS_4BaseIdT_EE"
 "_ZN4arma3ColIdEC1INS_5eGlueINS3_IS1_S1_NS_10eglue_plusEEES1_NS_11eglue_minusEEEEERKNS_4BaseIdT_EE"
 "_ZN4arma3ColIdEC1INS_5eGlueIS1_S1_NS_11eglue_minusEEEEERKNS_4BaseIdT_EE"
 "_ZN4arma3ColIdEC1INS_6mtGlueIdNS_2OpINS_4GlueINS4_IS1_NS_9op_htransEEENS_3MatIdEENS_10glue_timesEEES6_EENS0_IjEENS_14glue_mixed_divEEEEERKNS_4BaseIdT_EE"
 "_ZN4arma3ColIdED1Ev"
 "_ZN4arma3ColIjE8shed_rowEj"
 "_ZN4arma3ColIjE9shed_rowsEjj"
 "_ZN4arma3ColIjEaSEOS1_"
 "_ZN4arma3ColIjEaSERKSt16initializer_listIjE"
 "_ZN4arma3ColIjEaSINS_3GenIS1_NS_9gen_zerosEEEEERS1_RKNS_4BaseIjT_EE"
 "_ZN4arma3ColIjEaSINS_4mtOpIjNS_5eGlueINS3_IjNS0_IdEENS_12op_rel_noteqEEES7_NS_10eglue_plusEEENS_14op_find_simpleEEEEERS1_RKNS_4BaseIjT_EE"
 "_ZN4arma3ColIjEC1Ej"
 "_ZN4arma3ColIjEC1ERKSt16initializer_listIjE"
 "_ZN4arma3ColIjEC1Ev"
 "_ZN4arma3ColIjEC1INS_13subview_elem1IjNS_3MatIjEEEEEERKNS_4BaseIjT_EE"
 "_ZN4arma3ColIjEC1INS_3GenIS1_NS_9gen_zerosEEEEERKNS_4BaseIjT_EE"
 "_ZN4arma3ColIjEC1INS_4mtOpIjNS_11subview_rowIdEENS_14op_find_simpleEEEEERKNS_4BaseIjT_EE"
 "_ZN4arma3ColIjEC1INS_4mtOpIjNS_3MatIdEENS_17op_find_nonfiniteEEEEERKNS_4BaseIjT_EE"
 "_ZN4arma3ColIjEC1INS_4mtOpIjNS_5eGlueINS3_IjNS0_IdEENS_12op_rel_noteqEEES7_NS_10eglue_plusEEENS_14op_find_simpleEEEEERKNS_4BaseIjT_EE"
 "_ZN4arma3ColIjEC1INS_4mtOpIjNS_6mtGlueIjNS0_IdEENS_2OpINS_13subview_elem2IdNS_3MatIjEES9_EENS_9op_htransEEENS_11glue_rel_gtEEENS_14op_find_simpleEEEEERKNS_4BaseIjT_EE"
 "_ZN4arma3ColIjEC1INS_4mtOpIjNS0_IdEENS_13op_sort_indexEEEEERKNS_4BaseIjT_EE"
 "_ZN4arma3ColIjEC1INS_4mtOpIjNS3_IjS1_NS_9op_rel_eqEEENS_14op_find_simpleEEEEERKNS_4BaseIjT_EE"
 "_ZN4arma3ColIjEC1INS_7subviewIjEEEERKNS_4BaseIjT_EE"
 "_ZN4arma3ColIjED1Ev"
 "_ZN4arma3eOpINS_13subview_elem2IdNS_7subviewIjEENS_3MatIjEEEENS_16eop_scalar_timesEEC1ERKS6_d"
 "_ZN4arma3eOpINS_13subview_elem2IdNS_7subviewIjEENS_3MatIjEEEENS_16eop_scalar_timesEED1Ev"
 "_ZN4arma3eOpINS_2OpINS_13subview_elem2IdNS_3MatIjEES4_EENS_9op_htransEEENS_16eop_scalar_timesEEC1ERKS7_d"
 "_ZN4arma3eOpINS_2OpINS_13subview_elem2IdNS_3MatIjEES4_EENS_9op_htransEEENS_16eop_scalar_timesEED1Ev"
 "_ZN4arma3eOpINS_3ColIdEENS_18eop_scalar_div_preEEC1ERKS2_d"
 "_ZN4arma3eOpINS_3ColIdEENS_18eop_scalar_div_preEED1Ev"
 "_ZN4arma3eOpINS_3ColIdEENS_7eop_logEEC1ERKS2_"
 "_ZN4arma3eOpINS_3ColIdEENS_7eop_logEED1Ev"
 "_ZN4arma3eOpINS_3ColIdEENS_7eop_negEEC1ERKS2_"
 "_ZN4arma3eOpINS_3ColIdEENS_7eop_negEED1Ev"
 "_ZN4arma3eOpINS_3GenINS_3MatIdEENS_9gen_randnEEENS_16eop_scalar_timesEEC1ERKS5_d"
 "_ZN4arma3eOpINS_3GenINS_3MatIdEENS_9gen_randnEEENS_16eop_scalar_timesEED1Ev"
 "_ZN4arma3eOpINS_3MatIdEENS_16eop_scalar_timesEEC1ERKS2_d"
 "_ZN4arma3eOpINS_3MatIdEENS_16eop_scalar_timesEED1Ev"
 "_ZN4arma3eOpINS_3MatIdEENS_7eop_logEEC1ERKS2_"
 "_ZN4arma3eOpINS_3MatIdEENS_7eop_logEED1Ev"
 "_ZN4arma3eOpINS_3MatIdEENS_8eop_ceilEEC1ERKS2_"
 "_ZN4arma3eOpINS_3MatIdEENS_8eop_ceilEED1Ev"
 "_ZN4arma3eOpINS_5eGlueINS_3MatIdEENS0_IS3_NS_7eop_logEEENS_11eglue_schurEEENS_7eop_expEEC1ERKS7_"
 "_ZN4arma3eOpINS_5eGlueINS_3MatIdEENS0_IS3_NS_7eop_logEEENS_11eglue_schurEEENS_7eop_expEED1Ev"
 "_ZN4arma3eOpINS_5eGlueINS_3MatIdEES3_NS_11eglue_minusEEENS_7eop_absEEC1ERKS5_"
 "_ZN4arma3eOpINS_5eGlueINS_3MatIdEES3_NS_11eglue_minusEEENS_7eop_absEED1Ev"
 "_ZN4arma3eOpINS_5eGlueINS1_INS0_INS0_INS_3MatIdEENS_16eop_scalar_timesEEENS_15eop_scalar_plusEEES5_NS_10eglue_plusEEES3_S8_EENS_7eop_negEEC1ERKSA_"
 "_ZN4arma3eOpINS_5eGlueINS1_INS0_INS0_INS_3MatIdEENS_16eop_scalar_timesEEENS_15eop_scalar_plusEEES5_NS_10eglue_plusEEES3_S8_EENS_7eop_negEED1Ev"
 "_ZN4arma3eOpINS0_INS_3MatIdEENS_16eop_scalar_timesEEENS_15eop_scalar_plusEEC1ERKS4_d"
 "_ZN4arma3eOpINS0_INS_3MatIdEENS_16eop_scalar_timesEEENS_15eop_scalar_plusEED1Ev"
 "_ZN4arma3eOpINS0_INS_5eGlueINS1_INS0_INS0_INS_3MatIdEENS_16eop_scalar_timesEEENS_15eop_scalar_plusEEES5_NS_10eglue_plusEEES3_S8_EENS_7eop_negEEENS_7eop_expEEC1ERKSC_"
 "_ZN4arma3eOpINS0_INS_5eGlueINS1_INS0_INS0_INS_3MatIdEENS_16eop_scalar_timesEEENS_15eop_scalar_plusEEES5_NS_10eglue_plusEEES3_S8_EENS_7eop_negEEENS_7eop_expEED1Ev"
 "_ZN4arma3eOpINS0_INS0_INS_5eGlueINS1_INS0_INS0_INS_3MatIdEENS_16eop_scalar_timesEEENS_15eop_scalar_plusEEES5_NS_10eglue_plusEEES3_S8_EENS_7eop_negEEENS_7eop_expEEES6_EC1ERKSE_d"
 "_ZN4arma3eOpINS0_INS0_INS_5eGlueINS1_INS0_INS0_INS_3MatIdEENS_16eop_scalar_timesEEENS_15eop_scalar_plusEEES5_NS_10eglue_plusEEES3_S8_EENS_7eop_negEEENS_7eop_expEEES6_ED1Ev"
 "_ZN4arma3eOpINS0_INS0_INS0_INS_5eGlueINS1_INS0_INS0_INS_3MatIdEENS_16eop_scalar_timesEEENS_15eop_scalar_plusEEES5_NS_10eglue_plusEEES3_S8_EENS_7eop_negEEENS_7eop_expEEES6_EENS_18eop_scalar_div_preEEC1ERKSF_d"
 "_ZN4arma3eOpINS0_INS0_INS0_INS_5eGlueINS1_INS0_INS0_INS_3MatIdEENS_16eop_scalar_timesEEENS_15eop_scalar_plusEEES5_NS_10eglue_plusEEES3_S8_EENS_7eop_negEEENS_7eop_expEEES6_EENS_18eop_scalar_div_preEED1Ev"
 "_ZN4arma3MatIdE5randnEv"
 "_ZN4arma3MatIdE5resetEv"
 "_ZN4arma3MatIdE5zerosEjj"
 "_ZN4arma3MatIdE5zerosEv"
 "_ZN4arma3MatIdE7replaceEdd"
 "_ZN4arma3MatIdE8set_sizeEj"
 "_ZN4arma3MatIdE8set_sizeEjj"
 "_ZN4arma3MatIdE9copy_sizeIdS1_EEvRKNS_4BaseIT_T0_EE"
 "_ZN4arma3MatIdE9init_coldEv"
 "_ZN4arma3MatIdE9init_warmEjj"
 "_ZN4arma3MatIdE9steal_memERS1_"
 "_ZN4arma3MatIdEaSEOS1_"
 "_ZN4arma3MatIdEaSERKNS_7subviewIdEE"
 "_ZN4arma3MatIdEaSERKS1_"
 "_ZN4arma3MatIdEaSINS_11subview_colIdEENS_4mtOpIdNS_3ColIdEENS_8op_clampEEENS_9eglue_divEEERS1_RKNS_5eGlueIT_T0_T1_EE"
 "_ZN4arma3MatIdEaSINS_2OpINS_13subview_elem2IdNS0_IjEES5_EENS_10op_htrans2EEENS_13subview_elem1IdS5_EENS_11eglue_minusEEERS1_RKNS_5eGlueIT_T0_T1_EE"
 "_ZN4arma3MatIdEaSINS_2OpINS_4GlueINS3_INS_3ColIdEENS_9op_htransEEES1_NS_10glue_timesEEES7_EENS5_IjEENS_14glue_mixed_divEEERS1_RKNS_6mtGlueIdT_T0_T1_EE"
 "_ZN4arma3MatIdEaSINS_2OpIS1_NS_6op_sumEEENS_9op_htransEEERS1_RKNS3_IT_T0_EE"
 "_ZN4arma3MatIdEaSINS_3ColIdEENS_9gen_zerosEEERS1_RKNS_3GenIT_T0_EE"
 "_ZN4arma3MatIdEaSINS_3ColIdEES4_NS_11eglue_minusEEERS1_RKNS_5eGlueIT_T0_T1_EE"
 "_ZN4arma3MatIdEaSINS_3eOpINS_13subview_elem2IdNS_7subviewIjEENS0_IjEEEENS_16eop_scalar_timesEEENS_13subview_elem1IdS6_EENS_11eglue_minusEEERS1_RKNS_5eGlueIT_T0_T1_EE"
 "_ZN4arma3MatIdEaSINS_4mtOpIjNS3_IjS1_NS_14op_rel_gt_postEEENS_14op_find_simpleEEEEERS1_RKNS_13subview_elem1IdT_EE"
 "_ZN4arma3MatIdEaSINS_5eGlueINS_3ColIdEENS_2OpINS6_IS1_NS_6op_sumEEENS_9op_htransEEENS_10eglue_plusEEES8_NS_11eglue_minusEEERS1_RKNS3_IT_T0_T1_EE"
 "_ZN4arma3MatIdEaSINS_5eGlueINS_3ColIdEES5_NS_10eglue_plusEEES5_NS_11eglue_minusEEERS1_RKNS3_IT_T0_T1_EE"
 "_ZN4arma3MatIdEaSINS_5eGlueIS1_NS_2OpIS1_NS_9op_htransEEENS_11eglue_minusEEENS_3GenIS1_NS_9gen_zerosEEENS_8glue_maxEEERS1_RKNS_4GlueIT_T0_T1_EE"
 "_ZN4arma3MatIdEaSINS_7subviewIjEENS0_IjEEEERS1_RKNS_13subview_elem2IdT_T0_EE"
 "_ZN4arma3MatIdEaSINS0_IjEEEERS1_RKNS_13subview_elem1IdT_EE"
 "_ZN4arma3MatIdEaSINS0_IjEENS_7subviewIjEEEERS1_RKNS_13subview_elem2IdT_T0_EE"
 "_ZN4arma3MatIdEaSINS0_IjEES3_EERS1_RKNS_13subview_elem2IdT_T0_EE"
 "_ZN4arma3MatIdEaSIS1_NS_3ColIdEENS_11eglue_schurEEERS1_RKNS_5eGlueIT_T0_T1_EE"
 "_ZN4arma3MatIdEaSIS1_NS_6op_sumEEERS1_RKNS_2OpIT_T0_EE"
 "_ZN4arma3MatIdEaSIS1_NS_9gen_zerosEEERS1_RKNS_3GenIT_T0_EE"
 "_ZN4arma3MatIdEaSIS1_NS_9op_htransEEERS1_RKNS_2OpIT_T0_EE"
 "_ZN4arma3MatIdEaSIS1_NS_9op_symmatEEERS1_RKNS_2OpIT_T0_EE"
 "_ZN4arma3MatIdEaSIS1_S1_NS_10glue_timesEEERS1_RKNS_4GlueIT_T0_T1_EE"
 "_ZN4arma3MatIdEC1Ejj"
 "_ZN4arma3MatIdEC1EOS1_"
 "_ZN4arma3MatIdEC1EPdjjbb"
 "_ZN4arma3MatIdEC1ERKNS_7subviewIdEE"
 "_ZN4arma3MatIdEC1ERKS1_"
 "_ZN4arma3MatIdEC1Ev"
 "_ZN4arma3MatIdEC1INS_11subview_colIdEENS_4mtOpIdNS_3ColIdEENS_8op_clampEEENS_9eglue_divEEERKNS_5eGlueIT_T0_T1_EE"
 "_ZN4arma3MatIdEC1INS_11subview_rowIdEENS_9op_htransEEERKNS_2OpIT_T0_EE"
 "_ZN4arma3MatIdEC1INS_2OpINS_13subview_elem2IdNS0_IjEES5_EENS_10op_htrans2EEENS_13subview_elem1IdS5_EENS_11eglue_minusEEERKNS_5eGlueIT_T0_T1_EE"
 "_ZN4arma3MatIdEC1INS_2OpINS_3ColIdEENS_9op_htransEEES1_NS_10glue_timesEEERKNS_4GlueIT_T0_T1_EE"
 "_ZN4arma3MatIdEC1INS_2OpIS1_NS_6op_sumEEES5_NS_9eglue_divEEERKNS_5eGlueIT_T0_T1_EE"
 "_ZN4arma3MatIdEC1INS_3ColIdEENS_18eop_scalar_div_preEEERKNS_3eOpIT_T0_EE"
 "_ZN4arma3MatIdEC1INS_3ColIdEENS_7eop_negEEERKNS_3eOpIT_T0_EE"
 "_ZN4arma3MatIdEC1INS_3ColIdEENS_8op_clampEEERKNS_4mtOpIdT_T0_EE"
 "_ZN4arma3MatIdEC1INS_3eOpINS_13subview_elem2IdNS_7subviewIjEENS0_IjEEEENS_16eop_scalar_timesEEENS_13subview_elem1IdS6_EENS_11eglue_minusEEERKNS_5eGlueIT_T0_T1_EE"
 "_ZN4arma3MatIdEC1INS_3eOpINS_3ColIdEENS_18eop_scalar_div_preEEENS_2OpIS5_NS_9op_htransEEENS_10glue_timesEEERKNS_4GlueIT_T0_T1_EE"
 "_ZN4arma3MatIdEC1INS_3eOpINS3_INS3_INS_5eGlueINS4_INS3_INS3_IS1_NS_16eop_scalar_timesEEENS_15eop_scalar_plusEEES6_NS_10eglue_plusEEES1_S9_EENS_7eop_negEEENS_7eop_expEEES7_EENS_18eop_scalar_div_preEEERKNS3_IT_T0_EE"
 "_ZN4arma3MatIdEC1INS_3GenIS1_NS_9gen_randnEEENS_16eop_scalar_timesEEERKNS_3eOpIT_T0_EE"
 "_ZN4arma3MatIdEC1INS_4mtOpIjNS3_IjS1_NS_14op_rel_gt_postEEENS_14op_find_simpleEEEEERKNS_13subview_elem1IdT_EE"
 "_ZN4arma3MatIdEC1INS_5eGlueINS_3ColIdEENS_2OpINS6_IS1_NS_6op_sumEEENS_9op_htransEEENS_10eglue_plusEEES8_NS_11eglue_minusEEERKNS3_IT_T0_T1_EE"
 "_ZN4arma3MatIdEC1INS_5eGlueIS1_NS_3eOpIS1_NS_7eop_logEEENS_11eglue_schurEEENS_7eop_expEEERKNS4_IT_T0_EE"
 "_ZN4arma3MatIdEC1INS_7subviewIjEENS0_IjEEEERKNS_13subview_elem2IdT_T0_EE"
 "_ZN4arma3MatIdEC1INS0_IjEEEERKNS_13subview_elem1IdT_EE"
 "_ZN4arma3MatIdEC1INS0_IjEENS_7subviewIjEEEERKNS_13subview_elem2IdT_T0_EE"
 "_ZN4arma3MatIdEC1INS0_IjEES3_EERKNS_13subview_elem2IdT_T0_EE"
 "_ZN4arma3MatIdEC1IS1_NS_2OpIS1_NS_9op_htransEEENS_10eglue_plusEEERKNS_5eGlueIT_T0_T1_EE"
 "_ZN4arma3MatIdEC1IS1_NS_2OpIS1_NS_9op_htransEEENS_11eglue_minusEEERKNS_5eGlueIT_T0_T1_EE"
 "_ZN4arma3MatIdEC1IS1_NS_3ColIdEENS_10glue_timesEEERKNS_4GlueIT_T0_T1_EE"
 "_ZN4arma3MatIdEC1IS1_NS_6op_sumEEERKNS_2OpIT_T0_EE"
 "_ZN4arma3MatIdEC1IS1_NS_8eop_ceilEEERKNS_3eOpIT_T0_EE"
 "_ZN4arma3MatIdEC1IS1_NS_9gen_randnEEERKNS_3GenIT_T0_EE"
 "_ZN4arma3MatIdEC1IS1_NS_9gen_zerosEEERKNS_3GenIT_T0_EE"
 "_ZN4arma3MatIdEC2EPdjjbb"
 "_ZN4arma3MatIdEC2ERKNS_18arma_vec_indicatorEjjt"
 "_ZN4arma3MatIdEC2ERKNS_18arma_vec_indicatorEt"
 "_ZN4arma3MatIdED1Ev"
 "_ZN4arma3MatIdED2Ev"
 "_ZN4arma3MatIdEmIERKS1_"
 "_ZN4arma3MatIdEmIINS_11subview_rowIdEENS_9op_htransEEERS1_RKNS_2OpIT_T0_EE"
 "_ZN4arma3MatIdEmIINS_2OpINS_11subview_rowIdEENS_9op_htransEEENS_3ColIdEENS_11eglue_minusEEERS1_RKNS_5eGlueIT_T0_T1_EE"
 "_ZN4arma3MatIdEpLERKS1_"
 "_ZN4arma3MatIjE10soft_resetEv"
 "_ZN4arma3MatIjE13steal_mem_colERS1_j"
 "_ZN4arma3MatIjE3endEv"
 "_ZN4arma3MatIjE4fillEj"
 "_ZN4arma3MatIjE4initERKSt16initializer_listIjE"
 "_ZN4arma3MatIjE5beginEv"
 "_ZN4arma3MatIjE5resetEv"
 "_ZN4arma3MatIjE5zerosEjj"
 "_ZN4arma3MatIjE5zerosEv"
 "_ZN4arma3MatIjE8set_sizeEj"
 "_ZN4arma3MatIjE8set_sizeEjj"
 "_ZN4arma3MatIjE9init_coldEv"
 "_ZN4arma3MatIjE9init_warmEjj"
 "_ZN4arma3MatIjE9steal_memERS1_"
 "_ZN4arma3MatIjEaSERKNS_7subviewIjEE"
 "_ZN4arma3MatIjEaSERKS1_"
 "_ZN4arma3MatIjEaSINS_11subview_rowIdEENS_14op_find_simpleEEERS1_RKNS_4mtOpIjT_T0_EE"
 "_ZN4arma3MatIjEaSINS_3ColIdEENS_13op_sort_indexEEERS1_RKNS_4mtOpIjT_T0_EE"
 "_ZN4arma3MatIjEaSINS_3ColIjEENS_9gen_zerosEEERS1_RKNS_3GenIT_T0_EE"
 "_ZN4arma3MatIjEaSINS_4mtOpIjNS_3ColIjEENS_9op_rel_eqEEENS_14op_find_simpleEEERS1_RKNS3_IjT_T0_EE"
 "_ZN4arma3MatIjEaSINS_5eGlueINS_4mtOpIjNS_3ColIdEENS_12op_rel_noteqEEES8_NS_10eglue_plusEEENS_14op_find_simpleEEERS1_RKNS4_IjT_T0_EE"
 "_ZN4arma3MatIjEaSINS_6mtGlueIjNS_3ColIdEENS_2OpINS_13subview_elem2IdS1_S1_EENS_9op_htransEEENS_11glue_rel_gtEEENS_14op_find_simpleEEERS1_RKNS_4mtOpIjT_T0_EE"
 "_ZN4arma3MatIjEaSINS0_IdEENS_17op_find_nonfiniteEEERS1_RKNS_4mtOpIjT_T0_EE"
 "_ZN4arma3MatIjEaSIS1_EERS1_RKNS_13subview_elem1IjT_EE"
 "_ZN4arma3MatIjEC1Ejj"
 "_ZN4arma3MatIjEC1ERKNS_7subviewIjEE"
 "_ZN4arma3MatIjEC1ERKS1_"
 "_ZN4arma3MatIjEC1ERKSt16initializer_listIjE"
 "_ZN4arma3MatIjEC1Ev"
 "_ZN4arma3MatIjEC1INS_3ColIdEENS_12op_rel_noteqEEERKNS_4mtOpIjT_T0_EE"
 "_ZN4arma3MatIjEC1INS_3ColIdEENS_14op_rel_gt_postEEERKNS_4mtOpIjT_T0_EE"
 "_ZN4arma3MatIjEC1INS_3ColIdEENS_14op_rel_lt_postEEERKNS_4mtOpIjT_T0_EE"
 "_ZN4arma3MatIjEC1INS_3ColIdEENS_9op_rel_eqEEERKNS_4mtOpIjT_T0_EE"
 "_ZN4arma3MatIjEC1INS_3eOpINS_5eGlueINS0_IdEES5_NS_11eglue_minusEEENS_7eop_absEEENS_14op_rel_lt_postEEERKNS_4mtOpIjT_T0_EE"
 "_ZN4arma3MatIjEC1INS_4mtOpIjNS_3ColIjEENS_9op_rel_eqEEENS_14op_find_simpleEEERKNS3_IjT_T0_EE"
 "_ZN4arma3MatIjEC1INS_4mtOpIjNS0_IdEENS_14op_rel_gt_postEEENS_14op_find_simpleEEERKNS3_IjT_T0_EE"
 "_ZN4arma3MatIjEC1INS_4mtOpIjNS0_IdEENS_9op_rel_eqEEENS_14op_find_simpleEEERKNS3_IjT_T0_EE"
 "_ZN4arma3MatIjEC1INS_5eGlueINS_4mtOpIjNS_3eOpINS3_INS0_IdEES6_NS_11eglue_minusEEENS_7eop_absEEENS_14op_rel_lt_postEEENS4_IjS6_NS_14op_rel_gt_postEEENS_11eglue_schurEEENS3_INS4_IjS6_NS_9op_rel_eqEEENS_6mtGlueIjS6_S6_NS_13glue_rel_gteqEEESF_EENS_10eglue_plusEEERKNS3_IT_T0_T1_EE"
 "_ZN4arma3MatIjEC1INS0_IdEENS_14op_find_finiteEEERKNS_4mtOpIjT_T0_EE"
 "_ZN4arma3MatIjEC1INS0_IdEENS_14op_rel_gt_postEEERKNS_4mtOpIjT_T0_EE"
 "_ZN4arma3MatIjEC1INS0_IdEENS_17op_find_nonfiniteEEERKNS_4mtOpIjT_T0_EE"
 "_ZN4arma3MatIjEC1INS0_IdEENS_9op_rel_eqEEERKNS_4mtOpIjT_T0_EE"
 "_ZN4arma3MatIjEC1INS0_IdEES3_NS_13glue_rel_gteqEEERKNS_6mtGlueIjT_T0_T1_EE"
 "_ZN4arma3MatIjEC1IS1_NS_6op_allEEERKNS_4mtOpIjT_T0_EE"
 "_ZN4arma3MatIjEC2ERKNS_18arma_vec_indicatorEjjt"
 "_ZN4arma3MatIjEC2ERKNS_18arma_vec_indicatorEt"
 "_ZN4arma3MatIjED1Ev"
 "_ZN4arma3MatIjED2Ev"
 "_ZN4arma3maxINS_13subview_elem1IdNS_3MatIjEEEEEENS_10enable_if2IXaasrNS_12is_arma_typeIT_EE5valuesrNS_18resolves_to_vectorIS7_EE3yesENS7_9elem_typeEE6resultERKS7_"
 "_ZN4arma3RowIdEC1Ej"
 "_ZN4arma3RowIdEC1EPdjbb"
 "_ZN4arma3RowIdEC1INS_7subviewIdEEEERKNS_4BaseIdT_EE"
 "_ZN4arma3RowIdED1Ev"
 "_ZN4arma4accuINS_11subview_rowIdEEEENS_10enable_if2IXsrNS_12is_arma_typeIT_EE5valueENS5_9elem_typeEE6resultERKS5_"
 "_ZN4arma4accuINS_3ColIdEEEENS_10enable_if2IXsrNS_12is_arma_typeIT_EE5valueENS5_9elem_typeEE6resultERKS5_"
 "_ZN4arma4accuINS_3MatIdEEEENS_10enable_if2IXsrNS_12is_arma_typeIT_EE5valueENS5_9elem_typeEE6resultERKS5_"
 "_ZN4arma4BaseIdNS_10xtrans_matIdLb1EEEEC2Ev"
 "_ZN4arma4BaseIdNS_13subview_elem1IdNS_3MatIjEEEEEC2Ev"
 "_ZN4arma4BaseIdNS_13subview_elem1IdNS_4mtOpIjNS_3MatIdEENS_14op_find_finiteEEEEEEC2Ev"
 "_ZN4arma4BaseIdNS_13subview_elem1IdNS_4mtOpIjNS_3MatIdEENS_17op_find_nonfiniteEEEEEEC2Ev"
 "_ZN4arma4BaseIdNS_13subview_elem1IdNS_4mtOpIjNS2_IjNS_3MatIdEENS_14op_rel_gt_postEEENS_14op_find_simpleEEEEEEC2Ev"
 "_ZN4arma4BaseIdNS_13subview_elem1IdNS_4mtOpIjNS2_IjNS_3MatIdEENS_9op_rel_eqEEENS_14op_find_simpleEEEEEEC2Ev"
 "_ZN4arma4BaseIdNS_13subview_elem1IdNS_7subviewIjEEEEEC2Ev"
 "_ZN4arma4BaseIdNS_13subview_elem2IdNS_3MatIjEENS_7subviewIjEEEEEC2Ev"
 "_ZN4arma4BaseIdNS_13subview_elem2IdNS_3MatIjEES3_EEEC2Ev"
 "_ZN4arma4BaseIdNS_13subview_elem2IdNS_4mtOpIjNS2_IjNS_3ColIjEENS_9op_rel_eqEEENS_14op_find_simpleEEES8_EEEC2Ev"
 "_ZN4arma4BaseIdNS_13subview_elem2IdNS_7subviewIjEENS_3MatIjEEEEEC2Ev"
 "_ZN4arma4BaseIdNS_18subview_row_stransIdEEEC2Ev"
 "_ZN4arma4BaseIdNS_2OpINS_11subview_rowIdEENS_9op_htransEEEEC2Ev"
 "_ZN4arma4BaseIdNS_2OpINS_13subview_elem2IdNS_3MatIjEES4_EENS_10op_htrans2EEEEC2Ev"
 "_ZN4arma4BaseIdNS_2OpINS_13subview_elem2IdNS_3MatIjEES4_EENS_9op_htransEEEEC2Ev"
 "_ZN4arma4BaseIdNS_2OpINS_3ColIdEENS_9op_htransEEEEC2Ev"
 "_ZN4arma4BaseIdNS_2OpINS_3MatIdEENS_6op_sumEEEEC2Ev"
 "_ZN4arma4BaseIdNS_2OpINS_3MatIdEENS_9op_htransEEEEC2Ev"
 "_ZN4arma4BaseIdNS_2OpINS_3MatIdEENS_9op_symmatEEEEC2Ev"
 "_ZN4arma4BaseIdNS_2OpINS_4GlueINS1_INS_3ColIdEENS_9op_htransEEENS_3MatIdEENS_10glue_timesEEES5_EEEC2Ev"
 "_ZN4arma4BaseIdNS_2OpINS1_INS_3MatIdEENS_6op_sumEEENS_9op_htransEEEEC2Ev"
 "_ZN4arma4BaseIdNS_3eOpINS_13subview_elem2IdNS_7subviewIjEENS_3MatIjEEEENS_16eop_scalar_timesEEEEC2Ev"
 "_ZN4arma4BaseIdNS_3eOpINS_2OpINS_13subview_elem2IdNS_3MatIjEES5_EENS_9op_htransEEENS_16eop_scalar_timesEEEEC2Ev"
 "_ZN4arma4BaseIdNS_3eOpINS_3ColIdEENS_18eop_scalar_div_preEEEEC2Ev"
 "_ZN4arma4BaseIdNS_3eOpINS_3ColIdEENS_7eop_logEEEEC2Ev"
 "_ZN4arma4BaseIdNS_3eOpINS_3ColIdEENS_7eop_negEEEEC2Ev"
 "_ZN4arma4BaseIdNS_3eOpINS_3GenINS_3MatIdEENS_9gen_randnEEENS_16eop_scalar_timesEEEEC2Ev"
 "_ZN4arma4BaseIdNS_3eOpINS_3MatIdEENS_16eop_scalar_timesEEEEC2Ev"
 "_ZN4arma4BaseIdNS_3eOpINS_3MatIdEENS_7eop_logEEEEC2Ev"
 "_ZN4arma4BaseIdNS_3eOpINS_3MatIdEENS_8eop_ceilEEEEC2Ev"
 "_ZN4arma4BaseIdNS_3eOpINS_5eGlueINS_3MatIdEENS1_IS4_NS_7eop_logEEENS_11eglue_schurEEENS_7eop_expEEEEC2Ev"
 "_ZN4arma4BaseIdNS_3eOpINS_5eGlueINS_3MatIdEES4_NS_11eglue_minusEEENS_7eop_absEEEEC2Ev"
 "_ZN4arma4BaseIdNS_3eOpINS_5eGlueINS2_INS1_INS1_INS_3MatIdEENS_16eop_scalar_timesEEENS_15eop_scalar_plusEEES6_NS_10eglue_plusEEES4_S9_EENS_7eop_negEEEEC2Ev"
 "_ZN4arma4BaseIdNS_3eOpINS1_INS_3MatIdEENS_16eop_scalar_timesEEENS_15eop_scalar_plusEEEEC2Ev"
 "_ZN4arma4BaseIdNS_3eOpINS1_INS_5eGlueINS2_INS1_INS1_INS_3MatIdEENS_16eop_scalar_timesEEENS_15eop_scalar_plusEEES6_NS_10eglue_plusEEES4_S9_EENS_7eop_negEEENS_7eop_expEEEEC2Ev"
 "_ZN4arma4BaseIdNS_3eOpINS1_INS1_INS_5eGlueINS2_INS1_INS1_INS_3MatIdEENS_16eop_scalar_timesEEENS_15eop_scalar_plusEEES6_NS_10eglue_plusEEES4_S9_EENS_7eop_negEEENS_7eop_expEEES7_EEEC2Ev"
 "_ZN4arma4BaseIdNS_3eOpINS1_INS1_INS1_INS_5eGlueINS2_INS1_INS1_INS_3MatIdEENS_16eop_scalar_timesEEENS_15eop_scalar_plusEEES6_NS_10eglue_plusEEES4_S9_EENS_7eop_negEEENS_7eop_expEEES7_EENS_18eop_scalar_div_preEEEEC2Ev"
 "_ZN4arma4BaseIdNS_3GenINS_3ColIdEENS_9gen_zerosEEEEC2Ev"
 "_ZN4arma4BaseIdNS_3GenINS_3MatIdEENS_9gen_randnEEEEC2Ev"
 "_ZN4arma4BaseIdNS_3GenINS_3MatIdEENS_9gen_zerosEEEEC2Ev"
 "_ZN4arma4BaseIdNS_3MatIdEEEC2Ev"
 "_ZN4arma4BaseIdNS_4GlueINS_2OpINS_3ColIdEENS_9op_htransEEENS_3MatIdEENS_10glue_timesEEEEC2Ev"
 "_ZN4arma4BaseIdNS_4GlueINS_3eOpINS_3ColIdEENS_18eop_scalar_div_preEEENS_2OpIS4_NS_9op_htransEEENS_10glue_timesEEEEC2Ev"
 "_ZN4arma4BaseIdNS_4GlueINS_3MatIdEENS_3ColIdEENS_10glue_timesEEEEC2Ev"
 "_ZN4arma4BaseIdNS_4GlueINS_3MatIdEES3_NS_10glue_timesEEEEC2Ev"
 "_ZN4arma4BaseIdNS_4GlueINS_3RowIdEENS_3eOpINS_3ColIdEENS_7eop_logEEENS_10glue_timesEEEEC2Ev"
 "_ZN4arma4BaseIdNS_4GlueINS_5eGlueINS_3MatIdEENS_2OpIS4_NS_9op_htransEEENS_11eglue_minusEEENS_3GenIS4_NS_9gen_zerosEEENS_8glue_maxEEEEC2Ev"
 "_ZN4arma4BaseIdNS_4mtOpIdNS_3ColIdEENS_8op_clampEEEEC2Ev"
 "_ZN4arma4BaseIdNS_5eGlueINS_11subview_colIdEENS_4mtOpIdNS_3ColIdEENS_8op_clampEEENS_9eglue_divEEEEC2Ev"
 "_ZN4arma4BaseIdNS_5eGlueINS_2OpINS_11subview_rowIdEENS_9op_htransEEENS_3ColIdEENS_11eglue_minusEEEEC2Ev"
 "_ZN4arma4BaseIdNS_5eGlueINS_2OpINS_13subview_elem2IdNS_3MatIjEES5_EENS_10op_htrans2EEENS_13subview_elem1IdS5_EENS_11eglue_minusEEEEC2Ev"
 "_ZN4arma4BaseIdNS_5eGlueINS_2OpINS_3MatIdEENS_6op_sumEEES6_NS_9eglue_divEEEEC2Ev"
 "_ZN4arma4BaseIdNS_5eGlueINS_3ColIdEENS_2OpINS4_INS_3MatIdEENS_6op_sumEEENS_9op_htransEEENS_10eglue_plusEEEEC2Ev"
 "_ZN4arma4BaseIdNS_5eGlueINS_3ColIdEES3_NS_10eglue_plusEEEEC2Ev"
 "_ZN4arma4BaseIdNS_5eGlueINS_3ColIdEES3_NS_11eglue_minusEEEEC2Ev"
 "_ZN4arma4BaseIdNS_5eGlueINS_3eOpINS_13subview_elem2IdNS_7subviewIjEENS_3MatIjEEEENS_16eop_scalar_timesEEENS_13subview_elem1IdS5_EENS_11eglue_minusEEEEC2Ev"
 "_ZN4arma4BaseIdNS_5eGlueINS_3eOpINS2_INS_3MatIdEENS_16eop_scalar_timesEEENS_15eop_scalar_plusEEES6_NS_10eglue_plusEEEEC2Ev"
 "_ZN4arma4BaseIdNS_5eGlueINS_3MatIdEENS_2OpIS3_NS_9op_htransEEENS_10eglue_plusEEEEC2Ev"
 "_ZN4arma4BaseIdNS_5eGlueINS_3MatIdEENS_2OpIS3_NS_9op_htransEEENS_11eglue_minusEEEEC2Ev"
 "_ZN4arma4BaseIdNS_5eGlueINS_3MatIdEENS_3ColIdEENS_11eglue_schurEEEEC2Ev"
 "_ZN4arma4BaseIdNS_5eGlueINS_3MatIdEENS_3eOpIS3_NS_7eop_logEEENS_11eglue_schurEEEEC2Ev"
 "_ZN4arma4BaseIdNS_5eGlueINS_3MatIdEES3_NS_11eglue_minusEEEEC2Ev"
 "_ZN4arma4BaseIdNS_5eGlueINS1_INS_3ColIdEENS_2OpINS4_INS_3MatIdEENS_6op_sumEEENS_9op_htransEEENS_10eglue_plusEEES8_NS_11eglue_minusEEEEC2Ev"
 "_ZN4arma4BaseIdNS_5eGlueINS1_INS_3ColIdEES3_NS_10eglue_plusEEES3_NS_11eglue_minusEEEEC2Ev"
 "_ZN4arma4BaseIdNS_5eGlueINS1_INS_3eOpINS2_INS_3MatIdEENS_16eop_scalar_timesEEENS_15eop_scalar_plusEEES6_NS_10eglue_plusEEES4_S9_EEEC2Ev"
 "_ZN4arma4BaseIdNS_6mtGlueIdNS_2OpINS_4GlueINS2_INS_3ColIdEENS_9op_htransEEENS_3MatIdEENS_10glue_timesEEES6_EENS4_IjEENS_14glue_mixed_divEEEEC2Ev"
 "_ZN4arma4BaseIdNS_7subviewIdEEEC2Ev"
 "_ZN4arma4BaseIdNS_8diagviewIdEEEC2Ev"
 "_ZN4arma4BaseIjNS_13subview_elem1IjNS_3MatIjEEEEEC2Ev"
 "_ZN4arma4BaseIjNS_3GenINS_3ColIjEENS_9gen_zerosEEEEC2Ev"
 "_ZN4arma4BaseIjNS_3MatIjEEEC2Ev"
 "_ZN4arma4BaseIjNS_4mtOpIjNS_11subview_rowIdEENS_14op_find_simpleEEEEC2Ev"
 "_ZN4arma4BaseIjNS_4mtOpIjNS_13subview_elem1IdNS1_IjNS1_IjNS_3MatIdEENS_14op_rel_gt_postEEENS_14op_find_simpleEEEEENS_14op_rel_lt_postEEEEC2Ev"
 "_ZN4arma4BaseIjNS_4mtOpIjNS_3ColIdEENS_12op_rel_noteqEEEEC2Ev"
 "_ZN4arma4BaseIjNS_4mtOpIjNS_3ColIdEENS_13op_sort_indexEEEEC2Ev"
 "_ZN4arma4BaseIjNS_4mtOpIjNS_3ColIdEENS_14op_rel_gt_postEEEEC2Ev"
 "_ZN4arma4BaseIjNS_4mtOpIjNS_3ColIdEENS_14op_rel_lt_postEEEEC2Ev"
 "_ZN4arma4BaseIjNS_4mtOpIjNS_3ColIdEENS_9op_rel_eqEEEEC2Ev"
 "_ZN4arma4BaseIjNS_4mtOpIjNS_3ColIjEENS_9op_rel_eqEEEEC2Ev"
 "_ZN4arma4BaseIjNS_4mtOpIjNS_3eOpINS_5eGlueINS_3MatIdEES5_NS_11eglue_minusEEENS_7eop_absEEENS_14op_rel_lt_postEEEEC2Ev"
 "_ZN4arma4BaseIjNS_4mtOpIjNS_3MatIdEENS_14op_find_finiteEEEEC2Ev"
 "_ZN4arma4BaseIjNS_4mtOpIjNS_3MatIdEENS_14op_rel_gt_postEEEEC2Ev"
 "_ZN4arma4BaseIjNS_4mtOpIjNS_3MatIdEENS_17op_find_nonfiniteEEEEC2Ev"
 "_ZN4arma4BaseIjNS_4mtOpIjNS_3MatIdEENS_9op_rel_eqEEEEC2Ev"
 "_ZN4arma4BaseIjNS_4mtOpIjNS_3MatIjEENS_6op_allEEEEC2Ev"
 "_ZN4arma4BaseIjNS_4mtOpIjNS_5eGlueINS1_IjNS_3ColIdEENS_12op_rel_noteqEEES6_NS_10eglue_plusEEENS_14op_find_simpleEEEEC2Ev"
 "_ZN4arma4BaseIjNS_4mtOpIjNS_6mtGlueIjNS_3ColIdEENS_2OpINS_13subview_elem2IdNS_3MatIjEES8_EENS_9op_htransEEENS_11glue_rel_gtEEENS_14op_find_simpleEEEEC2Ev"
 "_ZN4arma4BaseIjNS_4mtOpIjNS1_IjNS_3ColIjEENS_9op_rel_eqEEENS_14op_find_simpleEEEEC2Ev"
 "_ZN4arma4BaseIjNS_4mtOpIjNS1_IjNS_3MatIdEENS_14op_rel_gt_postEEENS_14op_find_simpleEEEEC2Ev"
 "_ZN4arma4BaseIjNS_4mtOpIjNS1_IjNS_3MatIdEENS_9op_rel_eqEEENS_14op_find_simpleEEEEC2Ev"
 "_ZN4arma4BaseIjNS_5eGlueINS_4mtOpIjNS_3ColIdEENS_12op_rel_noteqEEES6_NS_10eglue_plusEEEEC2Ev"
 "_ZN4arma4BaseIjNS_5eGlueINS_4mtOpIjNS_3ColIdEENS_14op_rel_gt_postEEENS2_IjS4_NS_9op_rel_eqEEENS_11eglue_schurEEEEC2Ev"
 "_ZN4arma4BaseIjNS_5eGlueINS_4mtOpIjNS_3eOpINS1_INS_3MatIdEES5_NS_11eglue_minusEEENS_7eop_absEEENS_14op_rel_lt_postEEENS2_IjS5_NS_14op_rel_gt_postEEENS_11eglue_schurEEEEC2Ev"
 "_ZN4arma4BaseIjNS_5eGlueINS_4mtOpIjNS_3MatIdEENS_9op_rel_eqEEENS_6mtGlueIjS4_S4_NS_13glue_rel_gteqEEENS_11eglue_schurEEEEC2Ev"
 "_ZN4arma4BaseIjNS_5eGlueINS1_INS_4mtOpIjNS_3ColIdEENS_14op_rel_gt_postEEENS2_IjS4_NS_9op_rel_eqEEENS_11eglue_schurEEENS2_IjS4_NS_14op_rel_lt_postEEES9_EEEC2Ev"
 "_ZN4arma4BaseIjNS_5eGlueINS1_INS_4mtOpIjNS_3ColIdEENS_14op_rel_gt_postEEENS2_IjS4_NS_9op_rel_eqEEENS_11eglue_schurEEES6_S9_EEEC2Ev"
 "_ZN4arma4BaseIjNS_5eGlueINS1_INS_4mtOpIjNS_3eOpINS1_INS_3MatIdEES5_NS_11eglue_minusEEENS_7eop_absEEENS_14op_rel_lt_postEEENS2_IjS5_NS_14op_rel_gt_postEEENS_11eglue_schurEEENS1_INS2_IjS5_NS_9op_rel_eqEEENS_6mtGlueIjS5_S5_NS_13glue_rel_gteqEEESE_EENS_10eglue_plusEEEEC2Ev"
 "_ZN4arma4BaseIjNS_6mtGlueIjNS_3ColIdEENS_2OpINS_13subview_elem2IdNS_3MatIjEES7_EENS_9op_htransEEENS_11glue_rel_gtEEEEC2Ev"
 "_ZN4arma4BaseIjNS_6mtGlueIjNS_3MatIdEES3_NS_13glue_rel_gteqEEEEC2Ev"
 "_ZN4arma4BaseIjNS_7subviewIjEEEC2Ev"
 "_ZN4arma4BaseIjNS_8diagviewIjEEEC2Ev"
 "_ZN4arma4blas3dotIdEET_jPKS2_S4_"
 "_ZN4arma4blas4gemmIdEEvPKcS3_PKiS5_S5_PKT_S8_S5_S8_S5_S8_PS6_S5_"
 "_ZN4arma4blas4gemvIdEEvPKcPKiS5_PKT_S8_S5_S8_S5_S8_PS6_S5_"
 "_ZN4arma4blas4syrkIdEEvPKcS3_PKiS5_PKT_S8_S5_S8_PS6_S5_"
 "_ZN4arma4fill10fill_classINS0_10fill_randnEEC1Ev"
 "_ZN4arma4fill10fill_classINS0_10fill_randuEEC1Ev"
 "_ZN4arma4fill10fill_classINS0_10fill_zerosEEC1Ev"
 "_ZN4arma4fill10fill_classINS0_8fill_eyeEEC1Ev"
 "_ZN4arma4fill10fill_classINS0_9fill_noneEEC1Ev"
 "_ZN4arma4fill10fill_classINS0_9fill_onesEEC1Ev"
 "_ZN4arma4findINS_11subview_rowIdEEEENS_10enable_if2IXsrNS_12is_arma_typeIT_EE5valueEKNS_4mtOpIjS5_NS_14op_find_simpleEEEE6resultERKS5_"
 "_ZN4arma4findINS_4mtOpIjNS_3ColIjEENS_9op_rel_eqEEEEENS_10enable_if2IXsrNS_12is_arma_typeIT_EE5valueEKNS1_IjS8_NS_14op_find_simpleEEEE6resultERKS8_"
 "_ZN4arma4findINS_4mtOpIjNS_3MatIdEENS_14op_rel_gt_postEEEEENS_10enable_if2IXsrNS_12is_arma_typeIT_EE5valueEKNS1_IjS8_NS_14op_find_simpleEEEE6resultERKS8_"
 "_ZN4arma4findINS_4mtOpIjNS_3MatIdEENS_9op_rel_eqEEEEENS_10enable_if2IXsrNS_12is_arma_typeIT_EE5valueEKNS1_IjS8_NS_14op_find_simpleEEEE6resultERKS8_"
 "_ZN4arma4findINS_5eGlueINS_4mtOpIjNS_3ColIdEENS_12op_rel_noteqEEES6_NS_10eglue_plusEEEEENS_10enable_if2IXsrNS_12is_arma_typeIT_EE5valueEKNS2_IjSB_NS_14op_find_simpleEEEE6resultERKSB_"
 "_ZN4arma4findINS_6mtGlueIjNS_3ColIdEENS_2OpINS_13subview_elem2IdNS_3MatIjEES7_EENS_9op_htransEEENS_11glue_rel_gtEEEEENS_10enable_if2IXsrNS_12is_arma_typeIT_EE5valueEKNS_4mtOpIjSF_NS_14op_find_simpleEEEE6resultERKSF_"
 "_ZN4arma4gemmILb0ELb0ELb0ELb0EE15apply_blas_typeIdNS_3MatIdEES4_EEvRNS3_IT_EERKT0_RKT1_S5_S5_"
 "_ZN4arma4gemmILb0ELb1ELb0ELb0EE15apply_blas_typeIdNS_3MatIdEENS_3ColIdEEEEvRNS3_IT_EERKT0_RKT1_S7_S7_"
 "_ZN4arma4gemvILb0ELb0ELb0EE15apply_blas_typeIdNS_3ColIdEEEEvPT_RKT0_PKS5_S5_S5_"
 "_ZN4arma4gemvILb0ELb0ELb0EE15apply_blas_typeIdNS_3MatIdEEEEvPT_RKT0_PKS5_S5_S5_"
 "_ZN4arma4gemvILb1ELb0ELb0EE15apply_blas_typeIdNS_3ColIdEEEEvPT_RKT0_PKS5_S5_S5_"
 "_ZN4arma4gemvILb1ELb0ELb0EE15apply_blas_typeIdNS_3MatIdEEEEvPT_RKT0_PKS5_S5_S5_"
 "_ZN4arma4mtOpIdNS_3ColIdEENS_8op_clampEEC1ERKNS_23mtOp_dual_aux_indicatorERKS2_dd"
 "_ZN4arma4mtOpIdNS_3ColIdEENS_8op_clampEED1Ev"
 "_ZN4arma4mtOpIjNS_11subview_rowIdEENS_14op_find_simpleEEC1ERKS2_"
 "_ZN4arma4mtOpIjNS_11subview_rowIdEENS_14op_find_simpleEED1Ev"
 "_ZN4arma4mtOpIjNS_13subview_elem1IdNS0_IjNS0_IjNS_3MatIdEENS_14op_rel_gt_postEEENS_14op_find_simpleEEEEENS_14op_rel_lt_postEEC1ERKS8_d"
 "_ZN4arma4mtOpIjNS_13subview_elem1IdNS0_IjNS0_IjNS_3MatIdEENS_14op_rel_gt_postEEENS_14op_find_simpleEEEEENS_14op_rel_lt_postEED1Ev"
 "_ZN4arma4mtOpIjNS_3ColIdEENS_12op_rel_noteqEEC1ERKS2_d"
 "_ZN4arma4mtOpIjNS_3ColIdEENS_12op_rel_noteqEED1Ev"
 "_ZN4arma4mtOpIjNS_3ColIdEENS_13op_sort_indexEEC1ERKS2_jj"
 "_ZN4arma4mtOpIjNS_3ColIdEENS_13op_sort_indexEED1Ev"
 "_ZN4arma4mtOpIjNS_3ColIdEENS_14op_rel_gt_postEEC1ERKS2_d"
 "_ZN4arma4mtOpIjNS_3ColIdEENS_14op_rel_gt_postEED1Ev"
 "_ZN4arma4mtOpIjNS_3ColIdEENS_14op_rel_lt_postEEC1ERKS2_d"
 "_ZN4arma4mtOpIjNS_3ColIdEENS_14op_rel_lt_postEED1Ev"
 "_ZN4arma4mtOpIjNS_3ColIdEENS_9op_rel_eqEEC1ERKS2_d"
 "_ZN4arma4mtOpIjNS_3ColIdEENS_9op_rel_eqEED1Ev"
 "_ZN4arma4mtOpIjNS_3ColIjEENS_9op_rel_eqEEC1ERKS2_j"
 "_ZN4arma4mtOpIjNS_3ColIjEENS_9op_rel_eqEED1Ev"
 "_ZN4arma4mtOpIjNS_3eOpINS_5eGlueINS_3MatIdEES4_NS_11eglue_minusEEENS_7eop_absEEENS_14op_rel_lt_postEEC1ERKS8_d"
 "_ZN4arma4mtOpIjNS_3eOpINS_5eGlueINS_3MatIdEES4_NS_11eglue_minusEEENS_7eop_absEEENS_14op_rel_lt_postEED1Ev"
 "_ZN4arma4mtOpIjNS_3MatIdEENS_14op_find_finiteEEC1ERKS2_"
 "_ZN4arma4mtOpIjNS_3MatIdEENS_14op_find_finiteEED1Ev"
 "_ZN4arma4mtOpIjNS_3MatIdEENS_14op_rel_gt_postEEC1ERKS2_d"
 "_ZN4arma4mtOpIjNS_3MatIdEENS_14op_rel_gt_postEED1Ev"
 "_ZN4arma4mtOpIjNS_3MatIdEENS_17op_find_nonfiniteEEC1ERKS2_"
 "_ZN4arma4mtOpIjNS_3MatIdEENS_17op_find_nonfiniteEED1Ev"
 "_ZN4arma4mtOpIjNS_3MatIdEENS_9op_rel_eqEEC1ERKS2_d"
 "_ZN4arma4mtOpIjNS_3MatIdEENS_9op_rel_eqEED1Ev"
 "_ZN4arma4mtOpIjNS_3MatIjEENS_6op_allEEC1ERKS2_jj"
 "_ZN4arma4mtOpIjNS_3MatIjEENS_6op_allEED1Ev"
 "_ZN4arma4mtOpIjNS_5eGlueINS0_IjNS_3ColIdEENS_12op_rel_noteqEEES5_NS_10eglue_plusEEENS_14op_find_simpleEEC1ERKS7_"
 "_ZN4arma4mtOpIjNS_5eGlueINS0_IjNS_3ColIdEENS_12op_rel_noteqEEES5_NS_10eglue_plusEEENS_14op_find_simpleEED1Ev"
 "_ZN4arma4mtOpIjNS_6mtGlueIjNS_3ColIdEENS_2OpINS_13subview_elem2IdNS_3MatIjEES7_EENS_9op_htransEEENS_11glue_rel_gtEEENS_14op_find_simpleEEC1ERKSC_"
 "_ZN4arma4mtOpIjNS_6mtGlueIjNS_3ColIdEENS_2OpINS_13subview_elem2IdNS_3MatIjEES7_EENS_9op_htransEEENS_11glue_rel_gtEEENS_14op_find_simpleEED1Ev"
 "_ZN4arma4mtOpIjNS0_IjNS_3ColIjEENS_9op_rel_eqEEENS_14op_find_simpleEEC1ERKS4_"
 "_ZN4arma4mtOpIjNS0_IjNS_3ColIjEENS_9op_rel_eqEEENS_14op_find_simpleEED1Ev"
 "_ZN4arma4mtOpIjNS0_IjNS_3MatIdEENS_14op_rel_gt_postEEENS_14op_find_simpleEEC1ERKS4_"
 "_ZN4arma4mtOpIjNS0_IjNS_3MatIdEENS_14op_rel_gt_postEEENS_14op_find_simpleEED1Ev"
 "_ZN4arma4mtOpIjNS0_IjNS_3MatIdEENS_9op_rel_eqEEENS_14op_find_simpleEEC1ERKS4_"
 "_ZN4arma4mtOpIjNS0_IjNS_3MatIdEENS_9op_rel_eqEEENS_14op_find_simpleEED1Ev"
 "_ZN4arma4priv12Datum_helper3infIdEENS_14arma_real_onlyIT_E6resultEPS6_"
 "_ZN4arma4priv12Datum_helper3nanIdEENS_14arma_real_onlyIT_E6resultEPS6_"
 "_ZN4arma4priv12Datum_helper3nanIiEENS_18arma_integral_onlyIT_E6resultEPS6_"
 "_ZN4arma4priv12Datum_helper3nanIjEENS_18arma_integral_onlyIT_E6resultEPS6_"
 "_ZN4arma4syrkILb0ELb0ELb0EE15apply_blas_typeIdNS_3MatIdEEEEvRNS3_IT_EERKT0_S5_S5_"
 "_ZN4arma5clampINS_3ColIdEEEENS_10enable_if2IXaasrNS_12is_arma_typeIT_EE5valuesrNS_5is_cxINS5_9elem_typeEEE2noEKNS_4mtOpIS8_S5_NS_8op_clampEEEE6resultERKS5_S8_S8_"
 "_ZN4arma5DatumIdE3infE"
 "_ZN4arma5DatumIdE3nanE"
 "_ZN4arma5DatumIiE3nanE"
 "_ZN4arma5DatumIjE3nanE"
 "_ZN4arma5ProxyINS_11subview_colIdEEEC1ERKS2_"
 "_ZN4arma5ProxyINS_11subview_rowIdEEEC1ERKS2_"
 "_ZN4arma5ProxyINS_13subview_elem1IdNS_3MatIjEEEEEC1ERKS4_"
 "_ZN4arma5ProxyINS_13subview_elem1IdNS_4mtOpIjNS2_IjNS_3MatIdEENS_14op_rel_gt_postEEENS_14op_find_simpleEEEEEEC1ERKS9_"
 "_ZN4arma5ProxyINS_13subview_elem1IdNS_4mtOpIjNS2_IjNS_3MatIdEENS_14op_rel_gt_postEEENS_14op_find_simpleEEEEEED1Ev"
 "_ZN4arma5ProxyINS_13subview_elem1IdNS_7subviewIjEEEEEC1ERKS4_"
 "_ZN4arma5ProxyINS_13subview_elem2IdNS_3MatIjEENS_7subviewIjEEEEEC1ERKS6_"
 "_ZN4arma5ProxyINS_13subview_elem2IdNS_3MatIjEENS_7subviewIjEEEEED1Ev"
 "_ZN4arma5ProxyINS_13subview_elem2IdNS_7subviewIjEENS_3MatIjEEEEEC1ERKS6_"
 "_ZN4arma5ProxyINS_13subview_elem2IdNS_7subviewIjEENS_3MatIjEEEEED1Ev"
 "_ZN4arma5ProxyINS_2OpINS_11subview_rowIdEENS_9op_htransEEEEC1ERKS5_"
 "_ZN4arma5ProxyINS_2OpINS_13subview_elem2IdNS_3MatIjEES4_EENS_10op_htrans2EEEEC1ERKS7_"
 "_ZN4arma5ProxyINS_2OpINS_13subview_elem2IdNS_3MatIjEES4_EENS_10op_htrans2EEEED1Ev"
 "_ZN4arma5ProxyINS_2OpINS_13subview_elem2IdNS_3MatIjEES4_EENS_9op_htransEEEEC1ERKS7_"
 "_ZN4arma5ProxyINS_2OpINS_13subview_elem2IdNS_3MatIjEES4_EENS_9op_htransEEEED1Ev"
 "_ZN4arma5ProxyINS_2OpINS_3ColIdEENS_9op_htransEEEEC1ERKS5_"
 "_ZN4arma5ProxyINS_2OpINS_3ColIdEENS_9op_htransEEEED1Ev"
 "_ZN4arma5ProxyINS_2OpINS_3MatIdEENS_6op_sumEEEEC1ERKS5_"
 "_ZN4arma5ProxyINS_2OpINS_3MatIdEENS_6op_sumEEEED1Ev"
 "_ZN4arma5ProxyINS_2OpINS_3MatIdEENS_9op_htransEEEEC1ERKS5_"
 "_ZN4arma5ProxyINS_2OpINS_3MatIdEENS_9op_htransEEEED1Ev"
 "_ZN4arma5ProxyINS_2OpINS_4GlueINS1_INS_3ColIdEENS_9op_htransEEENS_3MatIdEENS_10glue_timesEEES5_EEEC1ERKSB_"
 "_ZN4arma5ProxyINS_2OpINS_4GlueINS1_INS_3ColIdEENS_9op_htransEEENS_3MatIdEENS_10glue_timesEEES5_EEED1Ev"
 "_ZN4arma5ProxyINS_2OpINS1_INS_3MatIdEENS_6op_sumEEENS_9op_htransEEEEC1ERKS7_"
 "_ZN4arma5ProxyINS_2OpINS1_INS_3MatIdEENS_6op_sumEEENS_9op_htransEEEED1Ev"
 "_ZN4arma5ProxyINS_3ColIdEEEC1ERKS2_"
 "_ZN4arma5ProxyINS_3ColIjEEEC1ERKS2_"
 "_ZN4arma5ProxyINS_3eOpINS_13subview_elem2IdNS_7subviewIjEENS_3MatIjEEEENS_16eop_scalar_timesEEEEC1ERKS9_"
 "_ZN4arma5ProxyINS_3eOpINS_3ColIdEENS_7eop_logEEEEC1ERKS5_"
 "_ZN4arma5ProxyINS_3eOpINS_3MatIdEENS_16eop_scalar_timesEEEEC1ERKS5_"
 "_ZN4arma5ProxyINS_3eOpINS_3MatIdEENS_7eop_logEEEEC1ERKS5_"
 "_ZN4arma5ProxyINS_3eOpINS_5eGlueINS_3MatIdEES4_NS_11eglue_minusEEENS_7eop_absEEEEC1ERKS8_"
 "_ZN4arma5ProxyINS_3eOpINS_5eGlueINS2_INS1_INS1_INS_3MatIdEENS_16eop_scalar_timesEEENS_15eop_scalar_plusEEES6_NS_10eglue_plusEEES4_S9_EENS_7eop_negEEEEC1ERKSD_"
 "_ZN4arma5ProxyINS_3eOpINS1_INS_3MatIdEENS_16eop_scalar_timesEEENS_15eop_scalar_plusEEEEC1ERKS7_"
 "_ZN4arma5ProxyINS_3eOpINS1_INS_5eGlueINS2_INS1_INS1_INS_3MatIdEENS_16eop_scalar_timesEEENS_15eop_scalar_plusEEES6_NS_10eglue_plusEEES4_S9_EENS_7eop_negEEENS_7eop_expEEEEC1ERKSF_"
 "_ZN4arma5ProxyINS_3eOpINS1_INS1_INS_5eGlueINS2_INS1_INS1_INS_3MatIdEENS_16eop_scalar_timesEEENS_15eop_scalar_plusEEES6_NS_10eglue_plusEEES4_S9_EENS_7eop_negEEENS_7eop_expEEES7_EEEC1ERKSG_"
 "_ZN4arma5ProxyINS_3GenINS_3MatIdEENS_9gen_randnEEEEC1ERKS5_"
 "_ZN4arma5ProxyINS_3GenINS_3MatIdEENS_9gen_randnEEEED1Ev"
 "_ZN4arma5ProxyINS_3GenINS_3MatIdEENS_9gen_zerosEEEEC1ERKS5_"
 "_ZN4arma5ProxyINS_3MatIdEEEC1ERKS2_"
 "_ZN4arma5ProxyINS_3MatIjEEEC1ERKS2_"
 "_ZN4arma5ProxyINS_3RowIdEEEC1ERKS2_"
 "_ZN4arma5ProxyINS_4mtOpIdNS_3ColIdEENS_8op_clampEEEEC1ERKS5_"
 "_ZN4arma5ProxyINS_4mtOpIdNS_3ColIdEENS_8op_clampEEEED1Ev"
 "_ZN4arma5ProxyINS_4mtOpIjNS_3ColIdEENS_12op_rel_noteqEEEEC1ERKS5_"
 "_ZN4arma5ProxyINS_4mtOpIjNS_3ColIdEENS_12op_rel_noteqEEEED1Ev"
 "_ZN4arma5ProxyINS_4mtOpIjNS_3ColIdEENS_14op_rel_gt_postEEEEC1ERKS5_"
 "_ZN4arma5ProxyINS_4mtOpIjNS_3ColIdEENS_14op_rel_gt_postEEEED1Ev"
 "_ZN4arma5ProxyINS_4mtOpIjNS_3ColIdEENS_14op_rel_lt_postEEEEC1ERKS5_"
 "_ZN4arma5ProxyINS_4mtOpIjNS_3ColIdEENS_14op_rel_lt_postEEEED1Ev"
 "_ZN4arma5ProxyINS_4mtOpIjNS_3ColIdEENS_9op_rel_eqEEEEC1ERKS5_"
 "_ZN4arma5ProxyINS_4mtOpIjNS_3ColIdEENS_9op_rel_eqEEEED1Ev"
 "_ZN4arma5ProxyINS_4mtOpIjNS_3eOpINS_5eGlueINS_3MatIdEES5_NS_11eglue_minusEEENS_7eop_absEEENS_14op_rel_lt_postEEEEC1ERKSB_"
 "_ZN4arma5ProxyINS_4mtOpIjNS_3eOpINS_5eGlueINS_3MatIdEES5_NS_11eglue_minusEEENS_7eop_absEEENS_14op_rel_lt_postEEEED1Ev"
 "_ZN4arma5ProxyINS_4mtOpIjNS_3MatIdEENS_14op_rel_gt_postEEEEC1ERKS5_"
 "_ZN4arma5ProxyINS_4mtOpIjNS_3MatIdEENS_14op_rel_gt_postEEEED1Ev"
 "_ZN4arma5ProxyINS_4mtOpIjNS_3MatIdEENS_9op_rel_eqEEEEC1ERKS5_"
 "_ZN4arma5ProxyINS_4mtOpIjNS_3MatIdEENS_9op_rel_eqEEEED1Ev"
 "_ZN4arma5ProxyINS_4mtOpIjNS_3MatIjEENS_6op_allEEEEC1ERKS5_"
 "_ZN4arma5ProxyINS_4mtOpIjNS_3MatIjEENS_6op_allEEEED1Ev"
 "_ZN4arma5ProxyINS_4mtOpIjNS1_IjNS_3ColIjEENS_9op_rel_eqEEENS_14op_find_simpleEEEEC1ERKS7_"
 "_ZN4arma5ProxyINS_4mtOpIjNS1_IjNS_3ColIjEENS_9op_rel_eqEEENS_14op_find_simpleEEEED1Ev"
 "_ZN4arma5ProxyINS_4mtOpIjNS1_IjNS_3MatIdEENS_14op_rel_gt_postEEENS_14op_find_simpleEEEEC1ERKS7_"
 "_ZN4arma5ProxyINS_4mtOpIjNS1_IjNS_3MatIdEENS_14op_rel_gt_postEEENS_14op_find_simpleEEEED1Ev"
 "_ZN4arma5ProxyINS_5eGlueINS_3ColIdEENS_2OpINS4_INS_3MatIdEENS_6op_sumEEENS_9op_htransEEENS_10eglue_plusEEEEC1ERKSC_"
 "_ZN4arma5ProxyINS_5eGlueINS_3ColIdEES3_NS_10eglue_plusEEEEC1ERKS5_"
 "_ZN4arma5ProxyINS_5eGlueINS_3eOpINS2_INS_3MatIdEENS_16eop_scalar_timesEEENS_15eop_scalar_plusEEES6_NS_10eglue_plusEEEEC1ERKSA_"
 "_ZN4arma5ProxyINS_5eGlueINS_3MatIdEENS_2OpIS3_NS_9op_htransEEENS_11eglue_minusEEEEC1ERKS8_"
 "_ZN4arma5ProxyINS_5eGlueINS_3MatIdEENS_3eOpIS3_NS_7eop_logEEENS_11eglue_schurEEEEC1ERKS8_"
 "_ZN4arma5ProxyINS_5eGlueINS_3MatIdEES3_NS_11eglue_minusEEEEC1ERKS5_"
 "_ZN4arma5ProxyINS_5eGlueINS_4mtOpIjNS_3ColIdEENS_12op_rel_noteqEEES6_NS_10eglue_plusEEEEC1ERKS8_"
 "_ZN4arma5ProxyINS_5eGlueINS_4mtOpIjNS_3ColIdEENS_14op_rel_gt_postEEENS2_IjS4_NS_9op_rel_eqEEENS_11eglue_schurEEEEC1ERKSA_"
 "_ZN4arma5ProxyINS_5eGlueINS_4mtOpIjNS_3eOpINS1_INS_3MatIdEES5_NS_11eglue_minusEEENS_7eop_absEEENS_14op_rel_lt_postEEENS2_IjS5_NS_14op_rel_gt_postEEENS_11eglue_schurEEEEC1ERKSF_"
 "_ZN4arma5ProxyINS_5eGlueINS_4mtOpIjNS_3MatIdEENS_9op_rel_eqEEENS_6mtGlueIjS4_S4_NS_13glue_rel_gteqEEENS_11eglue_schurEEEEC1ERKSB_"
 "_ZN4arma5ProxyINS_5eGlueINS1_INS_3eOpINS2_INS_3MatIdEENS_16eop_scalar_timesEEENS_15eop_scalar_plusEEES6_NS_10eglue_plusEEES4_S9_EEEC1ERKSB_"
 "_ZN4arma5ProxyINS_5eGlueINS1_INS_4mtOpIjNS_3ColIdEENS_14op_rel_gt_postEEENS2_IjS4_NS_9op_rel_eqEEENS_11eglue_schurEEENS2_IjS4_NS_14op_rel_lt_postEEES9_EEEC1ERKSD_"
 "_ZN4arma5ProxyINS_5eGlueINS1_INS_4mtOpIjNS_3ColIdEENS_14op_rel_gt_postEEENS2_IjS4_NS_9op_rel_eqEEENS_11eglue_schurEEES6_S9_EEEC1ERKSB_"
 "_ZN4arma5ProxyINS_6mtGlueIjNS_3MatIdEES3_NS_13glue_rel_gteqEEEEC1ERKS5_"
 "_ZN4arma5ProxyINS_6mtGlueIjNS_3MatIdEES3_NS_13glue_rel_gteqEEEED1Ev"
 "_ZN4arma5ProxyINS_7subviewIdEEEC1ERKS2_"
 "_ZN4arma5ProxyINS_7subviewIjEEEC1ERKS2_"
 "_ZN4arma6memory7acquireIdEEPT_j"
 "_ZN4arma6memory7acquireIjEEPT_j"
 "_ZN4arma6op_all12apply_helperINS_3MatIjEEEEvRS3_RKNS_5ProxyIT_EEj"
 "_ZN4arma6op_all14all_vec_helperINS_4mtOpIjNS_3MatIjEES0_EEEEbRKNS_4BaseINT_9elem_typeES7_EE"
 "_ZN4arma6op_all5applyINS_3MatIjEEEEvRS3_RKNS_4mtOpIjT_S0_EE"
 "_ZN4arma6op_all7all_vecIKNS_4mtOpIjNS_3MatIjEES0_EEEEbRT_"
 "_ZN4arma6op_any14any_vec_helperINS_13subview_elem1IdNS_4mtOpIjNS3_IjNS_3MatIdEENS_14op_rel_gt_postEEENS_14op_find_simpleEEEEENS_14op_rel_lt_postEEEbRKNS3_IjT_T0_EENS_16arma_op_rel_onlyISD_E6resultENS_11arma_not_cxINSC_9elem_typeEE6resultE"
 "_ZN4arma6op_any14any_vec_helperINS_5eGlueINS2_INS_4mtOpIjNS_3ColIdEENS_14op_rel_gt_postEEENS3_IjS5_NS_9op_rel_eqEEENS_11eglue_schurEEENS3_IjS5_NS_14op_rel_lt_postEEESA_EEEEbRKNS_4BaseINT_9elem_typeESG_EE"
 "_ZN4arma6op_any14any_vec_helperINS_5eGlueINS2_INS_4mtOpIjNS_3ColIdEENS_14op_rel_gt_postEEENS3_IjS5_NS_9op_rel_eqEEENS_11eglue_schurEEES7_SA_EEEEbRKNS_4BaseINT_9elem_typeESE_EE"
 "_ZN4arma6op_any7any_vecIKNS_4mtOpIjNS_13subview_elem1IdNS2_IjNS2_IjNS_3MatIdEENS_14op_rel_gt_postEEENS_14op_find_simpleEEEEENS_14op_rel_lt_postEEEEEbRT_"
 "_ZN4arma6op_any7any_vecIKNS_5eGlueINS2_INS_4mtOpIjNS_3ColIdEENS_14op_rel_gt_postEEENS3_IjS5_NS_9op_rel_eqEEENS_11eglue_schurEEENS3_IjS5_NS_14op_rel_lt_postEEESA_EEEEbRT_"
 "_ZN4arma6op_any7any_vecIKNS_5eGlueINS2_INS_4mtOpIjNS_3ColIdEENS_14op_rel_gt_postEEENS3_IjS5_NS_9op_rel_eqEEENS_11eglue_schurEEES7_SA_EEEEbRT_"
 "_ZN4arma6op_dot10direct_dotIdEENS_14arma_real_onlyIT_E6resultEjPKS3_S7_"
 "_ZN4arma6op_dot11apply_proxyINS_3RowIdEENS_3eOpINS_3ColIdEENS_7eop_logEEEEENS_11arma_not_cxINT_9elem_typeEE6resultERKNS_5ProxyISA_EERKNSE_IT0_EE"
 "_ZN4arma6op_max3maxINS_13subview_elem1IdNS_3MatIjEEEEEENS_11arma_not_cxINT_9elem_typeEE6resultERKNS_4BaseIS8_S7_EE"
 "_ZN4arma6op_min10direct_minIdEET_PKS2_j"
 "_ZN4arma6op_sum13apply_noaliasINS_3MatIdEEEEvRNS2_INT_9elem_typeEEERKNS_5ProxyIS4_EEj"
 "_ZN4arma6op_sum20apply_noalias_unwrapINS_3MatIdEEEEvRNS2_INT_9elem_typeEEERKNS_5ProxyIS4_EEj"
 "_ZN4arma6op_sum5applyINS_3MatIdEEEEvRNS2_INT_9elem_typeEEERKNS_2OpIS4_S0_EE"
 "_ZN4arma6unwrapINS_13subview_elem2IdNS_3MatIjEES3_EEEC1ERKS4_"
 "_ZN4arma6unwrapINS_13subview_elem2IdNS_3MatIjEES3_EEED1Ev"
 "_ZN4arma6unwrapINS_2OpINS_3MatIdEENS_6op_sumEEEEC1ERKS5_"
 "_ZN4arma6unwrapINS_2OpINS_3MatIdEENS_6op_sumEEEED1Ev"
 "_ZN4arma6unwrapINS_3ColIdEEEC1ERKS2_"
 "_ZN4arma6unwrapINS_3MatIdEEEC1ERKS2_"
 "_ZN4arma6unwrapINS_3MatIjEEEC1ERKS2_"
 "_ZN4arma7conv_toIjE4fromIjNS_4mtOpIjNS3_IjNS_3ColIjEENS_9op_rel_eqEEENS_14op_find_simpleEEEEEjRKNS_4BaseIT_T0_EEPKNS_11arma_not_cxISB_E6resultE"
 "_ZN4arma7op_find6helperINS_3ColIdEENS_2OpINS_13subview_elem2IdNS_3MatIjEES7_EENS_9op_htransEEENS_11glue_rel_gtEEEjRS7_RKNS_6mtGlueIjT_T0_T1_EENS_18arma_glue_rel_onlyISG_E6resultENS_11arma_not_cxINSE_9elem_typeEE6resultENSN_INSF_9elem_typeEE6resultE"
 "_ZN4arma7op_find6helperINS_3ColIjEENS_9op_rel_eqEEEjRNS_3MatIjEERKNS_4mtOpIjT_T0_EENS_16arma_op_rel_onlyISA_E6resultENS_11arma_not_cxINS9_9elem_typeEE6resultE"
 "_ZN4arma7op_find6helperINS_3MatIdEENS_14op_rel_gt_postEEEjRNS2_IjEERKNS_4mtOpIjT_T0_EENS_16arma_op_rel_onlyIS9_E6resultENS_11arma_not_cxINS8_9elem_typeEE6resultE"
 "_ZN4arma7op_find6helperINS_3MatIdEENS_9op_rel_eqEEEjRNS2_IjEERKNS_4mtOpIjT_T0_EENS_16arma_op_rel_onlyIS9_E6resultENS_11arma_not_cxINS8_9elem_typeEE6resultE"
 "_ZN4arma7op_find6helperINS_5eGlueINS_4mtOpIjNS_3ColIdEENS_12op_rel_noteqEEES7_NS_10eglue_plusEEEEEjRNS_3MatIjEERKNS_4BaseINT_9elem_typeESE_EE"
 "_ZN4arma7op_find6helperINS_7subviewIdEEEEjRNS_3MatIjEERKNS_4BaseINT_9elem_typeES8_EE"
 "_ZN4arma7subviewIdE10inplace_opINS_15op_internal_equENS_2OpINS_3ColIdEENS_9op_htransEEEEEvRKNS_4BaseIdT0_EEPKc"
 "_ZN4arma7subviewIdE10inplace_opINS_15op_internal_equENS_3MatIdEEEEvRKNS_4BaseIdT0_EEPKc"
 "_ZN4arma7subviewIdE7extractERNS_3MatIdEERKS1_"
 "_ZN4arma7subviewIdEaSINS_2OpINS_3ColIdEENS_9op_htransEEEEEvRKNS_4BaseIdT_EE"
 "_ZN4arma7subviewIdEaSINS_3MatIdEEEEvRKNS_4BaseIdT_EE"
 "_ZN4arma7subviewIdED2Ev"
 "_ZN4arma7subviewIjE10inplace_opINS_15op_internal_equENS_3MatIjEEEEvRKNS_4BaseIjT0_EEPKc"
 "_ZN4arma7subviewIjE7extractERNS_3MatIjEERKS1_"
 "_ZN4arma7subviewIjEaSINS_3MatIjEEEEvRKNS_4BaseIjT_EE"
 "_ZN4arma7subviewIjED2Ev"
 "_ZN4arma8arma_rng5randnIdE11fill_simpleEPdj"
 "_ZN4arma8arma_rng5randnIdE4fillEPdj"
 "_ZN4arma8arma_str3strIcEESsRKNS0_12basic_formatINS0_6formatET_EE"
 "_ZN4arma8arma_str3strIiEESsRKNS0_12basic_formatINS0_6formatET_EE"
 "_ZN4arma8arma_str3strIjjjjEESsRKNS0_12basic_formatINS2_INS2_INS2_INS0_6formatET_EET0_EET1_EET2_EE"
 "_ZN4arma8arma_strlsINS0_12basic_formatINS2_INS2_INS0_6formatEjEEjEEjEEjEERSoS7_RKNS2_IT_T0_EE"
 "_ZN4arma8arma_strlsINS0_6formatEcEERSoS3_RKNS0_12basic_formatIT_T0_EE"
 "_ZN4arma8arma_strlsINS0_6formatEiEERSoS3_RKNS0_12basic_formatIT_T0_EE"
 "_ZN4arma8arrayops10accumulateIdEET_PKS2_j"
 "_ZN4arma8arrayops10copy_smallIdEEvPT_PKS2_j"
 "_ZN4arma8arrayops10copy_smallIjEEvPT_PKS2_j"
 "_ZN4arma8arrayops10fill_zerosIdEEvPT_j"
 "_ZN4arma8arrayops10fill_zerosIjEEvPT_j"
 "_ZN4arma8arrayops11inplace_setIdEEvPT_S2_j"
 "_ZN4arma8arrayops11inplace_setIjEEvPT_S2_j"
 "_ZN4arma8arrayops12inplace_plusIdEEvPT_PKS2_j"
 "_ZN4arma8arrayops13inplace_minusIdEEvPT_PKS2_j"
 "_ZN4arma8arrayops16inplace_set_baseIdEEvPT_S2_j"
 "_ZN4arma8arrayops16inplace_set_baseIjEEvPT_S2_j"
 "_ZN4arma8arrayops17inplace_plus_baseIdEEvPT_PKS2_j"
 "_ZN4arma8arrayops17inplace_set_smallIdEEvPT_S2_j"
 "_ZN4arma8arrayops17inplace_set_smallIjEEvPT_S2_j"
 "_ZN4arma8arrayops18inplace_minus_baseIdEEvPT_PKS2_j"
 "_ZN4arma8arrayops7replaceIdEEvPT_jS2_S2_"
 "_ZN4arma8diagviewIdE4fillEd"
 "_ZN4arma8diagviewIdE4onesEv"
 "_ZN4arma8diagviewIdE5zerosEv"
 "_ZN4arma8diagviewIdED1Ev"
 "_ZN4arma8diagviewIjE4fillEj"
 "_ZN4arma8diagviewIjE4onesEv"
 "_ZN4arma8diagviewIjED1Ev"
 "_ZN4arma8eop_coreINS_16eop_scalar_timesEE5applyINS_3MatIdEENS_3GenIS5_NS_9gen_randnEEEEEvRT_RKNS_3eOpIT0_S1_EE"
 "_ZN4arma8eop_coreINS_18eop_scalar_div_preEE5applyINS_3MatIdEENS_3ColIdEEEEvRT_RKNS_3eOpIT0_S1_EE"
 "_ZN4arma8eop_coreINS_18eop_scalar_div_preEE5applyINS_3MatIdEENS_3eOpINS6_INS6_INS_5eGlueINS7_INS6_INS6_IS5_NS_16eop_scalar_timesEEENS_15eop_scalar_plusEEES9_NS_10eglue_plusEEES5_SC_EENS_7eop_negEEENS_7eop_expEEESA_EEEEvRT_RKNS6_IT0_S1_EE"
 "_ZN4arma8eop_coreINS_7eop_expEE5applyINS_3MatIdEENS_5eGlueIS5_NS_3eOpIS5_NS_7eop_logEEENS_11eglue_schurEEEEEvRT_RKNS7_IT0_S1_EE"
 "_ZN4arma8eop_coreINS_7eop_negEE5applyINS_3MatIdEENS_3ColIdEEEEvRT_RKNS_3eOpIT0_S1_EE"
 "_ZN4arma8eop_coreINS_8eop_ceilEE5applyINS_3MatIdEES5_EEvRT_RKNS_3eOpIT0_S1_EE"
 "_ZN4arma8glue_max5applyIdNS_5eGlueINS_3MatIdEENS_2OpIS4_NS_9op_htransEEENS_11eglue_minusEEENS_3GenIS4_NS_9gen_zerosEEEEEvRNS3_IT_EERKNS_5ProxyIT0_EERKNSG_IT1_EE"
 "_ZN4arma8glue_max5applyINS_5eGlueINS_3MatIdEENS_2OpIS4_NS_9op_htransEEENS_11eglue_minusEEENS_3GenIS4_NS_9gen_zerosEEEEEvRNS3_INT_9elem_typeEEERKNS_4GlueISD_T0_S0_EE"
 "_ZN4arma8linspaceEddj"
 "_ZN4arma8linspaceINS_3ColIdEEEENS_10enable_if2IXsrNS_6is_MatIT_EE5valueES5_E6resultENS5_8pod_typeES9_j"
 "_ZN4arma8linspaceINS_3ColIjEEEENS_10enable_if2IXsrNS_6is_MatIT_EE5valueES5_E6resultENS5_8pod_typeES9_j"
 "_ZN4arma8op_clamp12apply_directIdEEvRNS_3MatIT_EERKS4_S3_S3_"
 "_ZN4arma8op_clamp19apply_proxy_noaliasINS_3MatIdEEEEvRNS2_INT_9elem_typeEEERKNS_5ProxyIS4_EES5_S5_"
 "_ZN4arma8op_clamp5applyINS_3ColIdEEEEvRNS_3MatINT_9elem_typeEEERKNS_4mtOpIS6_S5_S0_EE"
 "_ZN4arma8syrk_vecILb0ELb0ELb0EE5applyIdNS_3MatIdEEEEvRNS3_IT_EERKT0_S5_S5_"
 "_ZN4arma9eglue_div4textEv"
 "_ZN4arma9hdf5_opts10opts_transC1Ev"
 "_ZN4arma9hdf5_opts11opts_appendC1Ev"
 "_ZN4arma9hdf5_opts12opts_replaceC1Ev"
 "_ZN4arma9hdf5_opts4optsC2Ej"
 "_ZN4arma9hdf5_opts9opts_noneC1Ev"
 "_ZN4arma9op_htrans5applyINS_11subview_rowIdEEEEvRNS_3MatINT_9elem_typeEEERKNS_2OpIS5_S0_EEPKNS_11arma_not_cxIS6_E6resultE"
 "_ZN4arma9op_htrans5applyINS_2OpINS_3MatIdEENS_6op_sumEEEEEvRNS3_INT_9elem_typeEEERKNS2_IS7_S0_EEPKNS_11arma_not_cxIS8_E6resultE"
 "_ZN4arma9op_htrans5applyINS_3MatIdEEEEvRNS2_INT_9elem_typeEEERKNS_2OpIS4_S0_EEPKNS_11arma_not_cxIS5_E6resultE"
 "_ZN4arma9op_rel_eq5applyINS_3ColIdEEEEvRNS_3MatIjEERKNS_4mtOpIjT_S0_EE"
 "_ZN4arma9op_rel_eq5applyINS_3MatIdEEEEvRNS2_IjEERKNS_4mtOpIjT_S0_EE"
 "_ZN4arma9op_strans11apply_proxyINS_11subview_rowIdEEEEvRNS_3MatINT_9elem_typeEEERKS5_"
 "_ZN4arma9op_strans11apply_proxyINS_2OpINS_3MatIdEENS_6op_sumEEEEEvRNS3_INT_9elem_typeEEERKS7_"
 "_ZN4arma9op_strans11apply_proxyINS_3MatIdEEEEvRNS2_INT_9elem_typeEEERKS4_"
 "_ZN4arma9op_strans12block_workerIdEEvPT_PKS2_jjjj"
 "_ZN4arma9op_strans17apply_mat_inplaceIdEEvRNS_3MatIT_EE"
 "_ZN4arma9op_strans17apply_mat_noaliasIdNS_3MatIdEEEEvRNS2_IT_EERKT0_"
 "_ZN4arma9op_strans23apply_mat_noalias_largeIdEEvRNS_3MatIT_EERKS4_"
 "_ZN4arma9op_strans24apply_mat_noalias_tinysqIdNS_3ColIdEEEEvRNS_3MatIT_EERKT0_"
 "_ZN4arma9op_strans24apply_mat_noalias_tinysqIdNS_3MatIdEEEEvRNS2_IT_EERKT0_"
 "_ZN4arma9op_strans9apply_matIdNS_3MatIdEEEEvRNS2_IT_EERKT0_"
 "_ZN4arma9op_symmat5applyINS_3MatIdEEEEvRNS2_INT_9elem_typeEEERKNS_2OpIS4_S0_EE"
 "_ZN4arma9Op_traitsINS_11subview_rowIdEENS_9op_htransELb1EEC2Ev"
 "_ZN4arma9Op_traitsINS_13subview_elem2IdNS_3MatIjEES3_EENS_10op_htrans2ELb1EEC2Ev"
 "_ZN4arma9Op_traitsINS_13subview_elem2IdNS_3MatIjEES3_EENS_9op_htransELb1EEC2Ev"
 "_ZN4arma9Op_traitsINS_2OpINS_3MatIdEENS_6op_sumEEENS_9op_htransELb1EEC2Ev"
 "_ZN4arma9Op_traitsINS_3ColIdEENS_9op_htransELb1EEC2Ev"
 "_ZN4arma9Op_traitsINS_3MatIdEENS_6op_sumELb1EEC2Ev"
 "_ZN4arma9Op_traitsINS_3MatIdEENS_9op_htransELb1EEC2Ev"
 "_ZN4arma9Op_traitsINS_3MatIdEENS_9op_symmatELb1EEC2Ev"
 "_ZN4arma9Op_traitsINS_4GlueINS_2OpINS_3ColIdEENS_9op_htransEEENS_3MatIdEENS_10glue_timesEEES5_Lb1EEC2Ev"
 "_ZN4arma9syrk_emulILb0ELb0ELb0EE5applyIdNS_3MatIdEEEEvRNS3_IT_EERKT0_S5_S5_"
 "_ZN4arma9syrk_emulILb1ELb0ELb0EE5applyIdNS_3MatIdEEEEvRNS3_IT_EERKT0_S5_S5_"
 "_ZN4armadvINS_2OpINS_4GlueINS1_INS_3ColIdEENS_9op_htransEEENS_3MatIdEENS_10glue_timesEEES5_EENS3_IjEEEENS_10enable_if2IXaaaasrNS_12is_arma_typeIT_EE5valuesrNSE_IT0_EE5valuesrNS_12is_same_typeINSF_9elem_typeENSH_9elem_typeEEE2noEKNS_6mtGlueINS_12promote_typeISK_SL_E6resultESF_SH_NS_14glue_mixed_divEEEE6resultERKSF_RKSH_"
 "_ZN4armaeqINS_3ColIdEEEENS_10enable_if2IXsrNS_12is_arma_typeIT_EE5valueEKNS_4mtOpIjS5_NS_9op_rel_eqEEEE6resultERKS5_NS5_9elem_typeE"
 "_ZN4armaeqINS_3ColIjEEEENS_10enable_if2IXsrNS_12is_arma_typeIT_EE5valueEKNS_4mtOpIjS5_NS_9op_rel_eqEEEE6resultERKS5_NS5_9elem_typeE"
 "_ZN4armaeqINS_3MatIdEEEENS_10enable_if2IXsrNS_12is_arma_typeIT_EE5valueEKNS_4mtOpIjS5_NS_9op_rel_eqEEEE6resultERKS5_NS5_9elem_typeE"
 "_ZN4armageINS_3MatIdEES2_EENS_10enable_if2IXaaaaaasrNS_12is_arma_typeIT_EE5valuesrNS4_IT0_EE5valuesrNS_5is_cxINS5_9elem_typeEEE2nosrNS9_INS7_9elem_typeEEE2noEKNS_6mtGlueIjS5_S7_NS_13glue_rel_gteqEEEE6resultERKS5_RKS7_"
 "_ZN4armagtINS_3ColIdEEEENS_10enable_if2IXaasrNS_12is_arma_typeIT_EE5valuesrNS_5is_cxINS5_9elem_typeEEE2noEKNS_4mtOpIjS5_NS_14op_rel_gt_postEEEE6resultERKS5_S8_"
 "_ZN4armagtINS_3ColIdEENS_2OpINS_13subview_elem2IdNS_3MatIjEES6_EENS_9op_htransEEEEENS_10enable_if2IXaaaaaasrNS_12is_arma_typeIT_EE5valuesrNSB_IT0_EE5valuesrNS_5is_cxINSC_9elem_typeEEE2nosrNSG_INSE_9elem_typeEEE2noEKNS_6mtGlueIjSC_SE_NS_11glue_rel_gtEEEE6resultERKSC_RKSE_"
 "_ZN4armagtINS_3MatIdEEEENS_10enable_if2IXaasrNS_12is_arma_typeIT_EE5valuesrNS_5is_cxINS5_9elem_typeEEE2noEKNS_4mtOpIjS5_NS_14op_rel_gt_postEEEE6resultERKS5_S8_"
 "_ZN4armalsIdNS_3MatIdEEEERSoS3_RKNS_4BaseIT_T0_EE"
 "_ZN4armaltINS_13subview_elem1IdNS_4mtOpIjNS2_IjNS_3MatIdEENS_14op_rel_gt_postEEENS_14op_find_simpleEEEEEEENS_10enable_if2IXaasrNS_12is_arma_typeIT_EE5valuesrNS_5is_cxINSC_9elem_typeEEE2noEKNS2_IjSC_NS_14op_rel_lt_postEEEE6resultERKSC_SF_"
 "_ZN4armaltINS_3ColIdEEEENS_10enable_if2IXaasrNS_12is_arma_typeIT_EE5valuesrNS_5is_cxINS5_9elem_typeEEE2noEKNS_4mtOpIjS5_NS_14op_rel_lt_postEEEE6resultERKS5_S8_"
 "_ZN4armaltINS_3eOpINS_5eGlueINS_3MatIdEES4_NS_11eglue_minusEEENS_7eop_absEEEEENS_10enable_if2IXaasrNS_12is_arma_typeIT_EE5valuesrNS_5is_cxINSB_9elem_typeEEE2noEKNS_4mtOpIjSB_NS_14op_rel_lt_postEEEE6resultERKSB_SE_"
 "_ZN4armaneINS_3ColIdEEEENS_10enable_if2IXsrNS_12is_arma_typeIT_EE5valueEKNS_4mtOpIjS5_NS_12op_rel_noteqEEEE6resultERKS5_NS5_9elem_typeE"
 "_ZN4armarmINS_3MatIdEELj0ENS_3eOpINS_3ColIdEENS_7eop_negEEEEENS1_INT_9elem_typeEEERKNS_13subview_each1IS8_XT0_EEERKNS_4BaseIS9_T1_EE"
 "_ZN4armarmINS_3MatIdEELj1ENS_2OpINS_3ColIdEENS_9op_htransEEEEENS1_INT_9elem_typeEEERKNS_13subview_each1IS8_XT0_EEERKNS_4BaseIS9_T1_EE"
 "_ZN4Rcpp10eval_errorC1ERKSs"
 "_ZN4Rcpp10eval_errorD0Ev"
 "_ZN4Rcpp10eval_errorD1Ev"
 "_ZN4Rcpp10Rcpp_lconsEP7SEXPRECS1_"
 "_ZN4Rcpp10RstreambufILb0EE4syncEv"
 "_ZN4Rcpp10RstreambufILb0EE6xsputnEPKcx"
 "_ZN4Rcpp10RstreambufILb0EE8overflowEi"
 "_ZN4Rcpp10RstreambufILb0EEC1Ev"
 "_ZN4Rcpp10RstreambufILb0EED0Ev"
 "_ZN4Rcpp10RstreambufILb0EED1Ev"
 "_ZN4Rcpp10RstreambufILb1EE4syncEv"
 "_ZN4Rcpp10RstreambufILb1EE6xsputnEPKcx"
 "_ZN4Rcpp10RstreambufILb1EE8overflowEi"
 "_ZN4Rcpp10RstreambufILb1EEC1Ev"
 "_ZN4Rcpp10RstreambufILb1EED0Ev"
 "_ZN4Rcpp10RstreambufILb1EED1Ev"
 "_ZN4Rcpp12GenericProxyINS_20AttributeProxyPolicyINS_12RObject_ImplINS_15PreserveStorageEEEE14AttributeProxyEEC2Ev"
 "_ZN4Rcpp12Rcpp_protectEP7SEXPREC"
 "_ZN4Rcpp12RObject_ImplINS_15PreserveStorageEE6updateEP7SEXPREC"
 "_ZN4Rcpp12RObject_ImplINS_15PreserveStorageEEC1EP7SEXPREC"
 "_ZN4Rcpp12RObject_ImplINS_15PreserveStorageEED1Ev"
 "_ZN4Rcpp13Function_ImplINS_15PreserveStorageEE12get_functionERKSsP7SEXPREC"
 "_ZN4Rcpp13Function_ImplINS_15PreserveStorageEE6updateEP7SEXPREC"
 "_ZN4Rcpp13Function_ImplINS_15PreserveStorageEEC1ERKSs"
 "_ZN4Rcpp13Function_ImplINS_15PreserveStorageEED1Ev"
 "_ZN4Rcpp13RcppArmadillo9arma_wrapIN4arma3MatIdEEEEP7SEXPRECRKT_RKNS_9DimensionE"
 "_ZN4Rcpp14not_compatibleC1IIPKcS3_EEES3_DpOT_"
 "_ZN4Rcpp14not_compatibleD0Ev"
 "_ZN4Rcpp14not_compatibleD1Ev"
 "_ZN4Rcpp14Rcpp_fast_evalEP7SEXPRECS1_"
 "_ZN4Rcpp14Rcpp_unprotectEi"
 "_ZN4Rcpp14RObjectMethodsINS_12RObject_ImplINS_15PreserveStorageEEEEC2Ev"
 "_ZN4Rcpp14RObjectMethodsINS_13Function_ImplINS_15PreserveStorageEEEEC2Ev"
 "_ZN4Rcpp15PreserveStorageINS_12RObject_ImplIS0_EEE5set__EP7SEXPREC"
 "_ZN4Rcpp15PreserveStorageINS_12RObject_ImplIS0_EEEC2Ev"
 "_ZN4Rcpp15PreserveStorageINS_12RObject_ImplIS0_EEED2Ev"
 "_ZN4Rcpp15PreserveStorageINS_13Function_ImplIS0_EEE5set__EP7SEXPREC"
 "_ZN4Rcpp15PreserveStorageINS_13Function_ImplIS0_EEEC2Ev"
 "_ZN4Rcpp15PreserveStorageINS_13Function_ImplIS0_EEED2Ev"
 "_ZN4Rcpp15SlotProxyPolicyINS_12RObject_ImplINS_15PreserveStorageEEEEC2Ev"
 "_ZN4Rcpp15SlotProxyPolicyINS_13Function_ImplINS_15PreserveStorageEEEEC2Ev"
 "_ZN4Rcpp16wrap_extra_stepsIdEEP7SEXPRECS2_"
 "_ZN4Rcpp16wrap_extra_stepsIiEEP7SEXPRECS2_"
 "_ZN4Rcpp18Rcpp_ReleaseObjectEP7SEXPREC"
 "_ZN4Rcpp18Rcpp_ReplaceObjectEP7SEXPRECS1_"
 "_ZN4Rcpp19Rcpp_PreserveObjectEP7SEXPREC"
 "_ZN4Rcpp20AttributeProxyPolicyINS_12RObject_ImplINS_15PreserveStorageEEEE14AttributeProxy3setEP7SEXPREC"
 "_ZN4Rcpp20AttributeProxyPolicyINS_12RObject_ImplINS_15PreserveStorageEEEE14AttributeProxyaSINS_9DimensionEEERS5_RKT_"
 "_ZN4Rcpp20AttributeProxyPolicyINS_12RObject_ImplINS_15PreserveStorageEEEE14AttributeProxyC1ERS3_RKSs"
 "_ZN4Rcpp20AttributeProxyPolicyINS_12RObject_ImplINS_15PreserveStorageEEEE4attrERKSs"
 "_ZN4Rcpp20AttributeProxyPolicyINS_12RObject_ImplINS_15PreserveStorageEEEEC2Ev"
 "_ZN4Rcpp20AttributeProxyPolicyINS_13Function_ImplINS_15PreserveStorageEEEEC2Ev"
 "_ZN4Rcpp2asIN4arma3RowIdEEEET_P7SEXPREC"
 "_ZN4Rcpp4growEP7SEXPRECS1_"
 "_ZN4Rcpp4growIN4arma3MatIdEEEEP7SEXPRECRKT_S5_"
 "_ZN4Rcpp4stopERKSs"
 "_ZN4Rcpp4stopIIEEEvPKcDpOT_"
 "_ZN4Rcpp4wrapIdEEP7SEXPRECRKN4arma3MatIT_EE"
 "_ZN4Rcpp4wrapIN9__gnu_cxx17__normal_iteratorIPKiSt6vectorIiSaIiEEEEEEP7SEXPRECT_SB_"
 "_ZN4Rcpp4wrapINS_9DimensionEEEP7SEXPRECRKT_"
 "_ZN4Rcpp4wrapIPKdEEP7SEXPRECT_S5_"
 "_ZN4Rcpp6r_castILi14EEEP7SEXPRECS2_"
 "_ZN4Rcpp6ShieldIP7SEXPRECEC1ES2_"
 "_ZN4Rcpp6ShieldIP7SEXPRECED1Ev"
 "_ZN4Rcpp6traits16IndexingExporterIN4arma3RowIdEEdE3getEv"
 "_ZN4Rcpp6traits16IndexingExporterIN4arma3RowIdEEdEC2EP7SEXPREC"
 "_ZN4Rcpp6traits16IndexingExporterIN4arma3RowIdEEdED2Ev"
 "_ZN4Rcpp6traits8ExporterIN4arma3RowIdEEEC1EP7SEXPREC"
 "_ZN4Rcpp6traits8ExporterIN4arma3RowIdEEED1Ev"
 "_ZN4Rcpp8internal10basic_castILi14EEEP7SEXPRECS3_"
 "_ZN4Rcpp8internal10range_wrapIN9__gnu_cxx17__normal_iteratorIPKiSt6vectorIiSaIiEEEEEEP7SEXPRECT_SC_"
 "_ZN4Rcpp8internal10range_wrapIPKdEEP7SEXPRECT_S6_"
 "_ZN4Rcpp8internal11r_true_castILi14EEEP7SEXPRECS3_"
 "_ZN4Rcpp8internal13wrap_dispatchINS_9DimensionEEEP7SEXPRECRKT_NS_6traits21wrap_type_unknown_tagE"
 "_ZN4Rcpp8internal14grow__dispatchIN4arma3MatIdEEEEP7SEXPRECNS_6traits17integral_constantIbLb0EEERKT_S6_"
 "_ZN4Rcpp8internal14r_vector_startILi13EEEPNS_6traits12storage_typeIXT_EE4typeEP7SEXPREC"
 "_ZN4Rcpp8internal14r_vector_startILi14EEEPNS_6traits12storage_typeIXT_EE4typeEP7SEXPREC"
 "_ZN4Rcpp8internal14Rcpp_eval_implEP7SEXPRECS2_"
 "_ZN4Rcpp8internal15export_indexingIN4arma3RowIdEEdEEvP7SEXPRECRT_"
 "_ZN4Rcpp8internal16NamedPlaceHolderC1Ev"
 "_ZN4Rcpp8internal16NamedPlaceHolderD1Ev"
 "_ZN4Rcpp8internal19range_wrap_dispatchIN9__gnu_cxx17__normal_iteratorIPKiSt6vectorIiSaIiEEEEiEEP7SEXPRECT_SC_"
 "_ZN4Rcpp8internal19range_wrap_dispatchIPKddEEP7SEXPRECT_S6_"
 "_ZN4Rcpp8internal19wrap_dispatch_eigenINS_9DimensionEEEP7SEXPRECRKT_NS_6traits17integral_constantIbLb0EEE"
 "_ZN4Rcpp8internal21export_indexing__implIN4arma3RowIdEEdEEvP7SEXPRECRT_NS_6traits17integral_constantIbLb0EEE"
 "_ZN4Rcpp8internal21wrap_dispatch_unknownINS_9DimensionEEEP7SEXPRECRKT_NS_6traits17integral_constantIbLb1EEE"
 "_ZN4Rcpp8internal25export_indexing__dispatchIN4arma3RowIdEEdEEvP7SEXPRECRT_NS_6traits20r_type_primitive_tagE"
 "_ZN4Rcpp8internal26primitive_range_wrap__implIN9__gnu_cxx17__normal_iteratorIPKiSt6vectorIiSaIiEEEEiEEP7SEXPRECT_SC_NS_6traits17integral_constantIbLb0EEE"
 "_ZN4Rcpp8internal26primitive_range_wrap__implIPKddEEP7SEXPRECT_S6_NS_6traits17integral_constantIbLb0EEE"
 "_ZN4Rcpp8internal26range_wrap_dispatch___implIN9__gnu_cxx17__normal_iteratorIPKiSt6vectorIiSaIiEEEEiEEP7SEXPRECT_SC_NS_6traits20r_type_primitive_tagE"
 "_ZN4Rcpp8internal26range_wrap_dispatch___implIPKddEEP7SEXPRECT_S6_NS_6traits20r_type_primitive_tagE"
 "_ZN4Rcpp8internal2asIN4arma3RowIdEEEET_P7SEXPRECNS_6traits18r_type_generic_tagE"
 "_ZN4Rcpp8internal32wrap_dispatch_unknown_importableINS_9DimensionEEEP7SEXPRECRKT_NS_6traits17integral_constantIbLb0EEE"
 "_ZN4Rcpp8internal34primitive_range_wrap__impl__nocastIN9__gnu_cxx17__normal_iteratorIPKiSt6vectorIiSaIiEEEEiEEP7SEXPRECT_SC_St26random_access_iterator_tag"
 "_ZN4Rcpp8internal34primitive_range_wrap__impl__nocastIPKddEEP7SEXPRECT_S6_St26random_access_iterator_tag"
 "_ZN4Rcpp8pairlistIN4arma3MatIdEES3_S3_EEP7SEXPRECRKT_RKT0_RKT1_"
 "_ZN4Rcpp8RostreamILb0EEC1Ev"
 "_ZN4Rcpp8RostreamILb0EED0Ev"
 "_ZN4Rcpp8RostreamILb0EED1Ev"
 "_ZN4Rcpp8RostreamILb1EEC1Ev"
 "_ZN4Rcpp8RostreamILb1EED0Ev"
 "_ZN4Rcpp8RostreamILb1EED1Ev"
 "_ZN4Rcpp9DimensionC1ERKyS2_"
 "_ZN4Rcpp9DimensionD1Ev"
 "_ZN4Rcpp9exceptionC1EPKcb"
 "_ZN4Rcpp9exceptionD0Ev"
 "_ZN4Rcpp9exceptionD1Ev"
 "_ZN4Rcpp9Rcpp_evalEP7SEXPRECS1_"
 "_ZN9__gnu_cxx13new_allocatorIiE10deallocateEPiy"
 "_ZN9__gnu_cxx13new_allocatorIiE8allocateEyPKv"
 "_ZN9__gnu_cxx13new_allocatorIiEC2ERKS1_"
 "_ZN9__gnu_cxx13new_allocatorIiEC2Ev"
 "_ZN9__gnu_cxx13new_allocatorIiED2Ev"
 "_ZN9__gnu_cxx13new_allocatorIN4arma22arma_sort_index_packetIdEEE10deallocateEPS3_y"
 "_ZN9__gnu_cxx13new_allocatorIN4arma22arma_sort_index_packetIdEEE8allocateEyPKv"
 "_ZN9__gnu_cxx13new_allocatorIN4arma22arma_sort_index_packetIdEEEC2ERKS4_"
 "_ZN9__gnu_cxx13new_allocatorIN4arma22arma_sort_index_packetIdEEEC2Ev"
 "_ZN9__gnu_cxx13new_allocatorIN4arma22arma_sort_index_packetIdEEED2Ev"
 "_ZN9__gnu_cxx17__normal_iteratorIPKiSt6vectorIiSaIiEEEC1ERKS2_"
 "_ZN9__gnu_cxx17__normal_iteratorIPN4arma22arma_sort_index_packetIdEESt6vectorIS3_SaIS3_EEEC1ERKS4_"
 "_ZN9__gnu_cxx17__normal_iteratorIPN4arma22arma_sort_index_packetIdEESt6vectorIS3_SaIS3_EEEmmEv"
 "_ZN9__gnu_cxx17__normal_iteratorIPN4arma22arma_sort_index_packetIdEESt6vectorIS3_SaIS3_EEEppEv"
 "_ZN9__gnu_cxx5__ops14_Iter_comp_valIN4arma29arma_sort_index_helper_ascendIdEEEC1ES4_"
 "_ZN9__gnu_cxx5__ops14_Iter_comp_valIN4arma29arma_sort_index_helper_ascendIdEEEclINS_17__normal_iteratorIPNS2_22arma_sort_index_packetIdEESt6vectorIS9_SaIS9_EEEES9_EEbT_RT0_"
 "_ZN9__gnu_cxx5__ops14_Iter_comp_valIN4arma30arma_sort_index_helper_descendIdEEEC1ES4_"
 "_ZN9__gnu_cxx5__ops14_Iter_comp_valIN4arma30arma_sort_index_helper_descendIdEEEclINS_17__normal_iteratorIPNS2_22arma_sort_index_packetIdEESt6vectorIS9_SaIS9_EEEES9_EEbT_RT0_"
 "_ZN9__gnu_cxx5__ops14_Val_comp_iterIN4arma29arma_sort_index_helper_ascendIdEEEC1ES4_"
 "_ZN9__gnu_cxx5__ops14_Val_comp_iterIN4arma29arma_sort_index_helper_ascendIdEEEclINS2_22arma_sort_index_packetIdEENS_17__normal_iteratorIPS8_St6vectorIS8_SaIS8_EEEEEEbRT_T0_"
 "_ZN9__gnu_cxx5__ops14_Val_comp_iterIN4arma30arma_sort_index_helper_descendIdEEEC1ES4_"
 "_ZN9__gnu_cxx5__ops14_Val_comp_iterIN4arma30arma_sort_index_helper_descendIdEEEclINS2_22arma_sort_index_packetIdEENS_17__normal_iteratorIPS8_St6vectorIS8_SaIS8_EEEEEEbRT_T0_"
 "_ZN9__gnu_cxx5__ops15__iter_comp_valIN4arma29arma_sort_index_helper_ascendIdEEEENS0_14_Iter_comp_valIT_EENS0_15_Iter_comp_iterIS6_EE"
 "_ZN9__gnu_cxx5__ops15__iter_comp_valIN4arma30arma_sort_index_helper_descendIdEEEENS0_14_Iter_comp_valIT_EENS0_15_Iter_comp_iterIS6_EE"
 "_ZN9__gnu_cxx5__ops15__val_comp_iterIN4arma29arma_sort_index_helper_ascendIdEEEENS0_14_Val_comp_iterIT_EENS0_15_Iter_comp_iterIS6_EE"
 "_ZN9__gnu_cxx5__ops15__val_comp_iterIN4arma30arma_sort_index_helper_descendIdEEEENS0_14_Val_comp_iterIT_EENS0_15_Iter_comp_iterIS6_EE"
 "_ZN9__gnu_cxx5__ops15_Iter_comp_iterIN4arma29arma_sort_index_helper_ascendIdEEEC1ES4_"
 "_ZN9__gnu_cxx5__ops15_Iter_comp_iterIN4arma29arma_sort_index_helper_ascendIdEEEclINS_17__normal_iteratorIPNS2_22arma_sort_index_packetIdEESt6vectorIS9_SaIS9_EEEESE_EEbT_T0_"
 "_ZN9__gnu_cxx5__ops15_Iter_comp_iterIN4arma30arma_sort_index_helper_descendIdEEEC1ES4_"
 "_ZN9__gnu_cxx5__ops15_Iter_comp_iterIN4arma30arma_sort_index_helper_descendIdEEEclINS_17__normal_iteratorIPNS2_22arma_sort_index_packetIdEESt6vectorIS9_SaIS9_EEEESE_EEbT_T0_"
 "_ZN9__gnu_cxx5__ops16__iter_comp_iterIN4arma29arma_sort_index_helper_ascendIdEEEENS0_15_Iter_comp_iterIT_EES6_"
 "_ZN9__gnu_cxx5__ops16__iter_comp_iterIN4arma30arma_sort_index_helper_descendIdEEEENS0_15_Iter_comp_iterIT_EES6_"
 "_ZN9__gnu_cxxeqIPN4arma22arma_sort_index_packetIdEESt6vectorIS3_SaIS3_EEEEbRKNS_17__normal_iteratorIT_T0_EESD_"
 "_ZN9__gnu_cxxltIPN4arma22arma_sort_index_packetIdEESt6vectorIS3_SaIS3_EEEEbRKNS_17__normal_iteratorIT_T0_EESD_"
 "_ZN9__gnu_cxxmiIPKiSt6vectorIiSaIiEEEENS_17__normal_iteratorIT_T0_E15difference_typeERKS9_SC_"
 "_ZN9__gnu_cxxmiIPN4arma22arma_sort_index_packetIdEESt6vectorIS3_SaIS3_EEEENS_17__normal_iteratorIT_T0_E15difference_typeERKSB_SE_"
 "_ZN9__gnu_cxxneIPN4arma22arma_sort_index_packetIdEESt6vectorIS3_SaIS3_EEEEbRKNS_17__normal_iteratorIT_T0_EESD_"
 "_ZNK10tinyformat6detail9FormatArg5toIntEv"
 "_ZNK10tinyformat6detail9FormatArg6formatERSoPKcS4_i"
 "_ZNK4arma10xtrans_matIdLb1EEixEj"
 "_ZNK4arma11subview_rowIdEixEj"
 "_ZNK4arma18arma_ostream_state7restoreERSo"
 "_ZNK4arma18subview_row_stransIdE6at_altEj"
 "_ZNK4arma18subview_row_stransIdEixEj"
 "_ZNK4arma19subview_each_commonINS_3MatIdEELj0EE10check_sizeERKS2_"
 "_ZNK4arma19subview_each_commonINS_3MatIdEELj0EE20incompat_size_stringERKS2_"
 "_ZNK4arma19subview_each_commonINS_3MatIdEELj1EE10check_sizeERKS2_"
 "_ZNK4arma19subview_each_commonINS_3MatIdEELj1EE20incompat_size_stringERKS2_"
 "_ZNK4arma3GenINS_3ColIdEENS_9gen_zerosEE5applyERNS_3MatIdEE"
 "_ZNK4arma3GenINS_3ColIjEENS_9gen_zerosEE5applyERNS_3MatIjEE"
 "_ZNK4arma3GenINS_3MatIdEENS_9gen_randnEE5applyERS2_"
 "_ZNK4arma3GenINS_3MatIdEENS_9gen_zerosEE5applyERS2_"
 "_ZNK4arma3MatIdE3minEv"
 "_ZNK4arma7subviewIdE2atEjj"
 "_ZNK4arma7subviewIdE6is_vecEv"
 "_ZNK4arma7subviewIjE2atEjj"
 "_ZNK4arma7subviewIjE6is_vecEv"
 "_ZNK4arma8arma_rng5randnIdEcvdEv"
 "_ZNK4Rcpp10eval_error4whatEv"
 "_ZNK4Rcpp13Function_ImplINS_15PreserveStorageEEclIN4arma3MatIdEES6_S6_EEP7SEXPRECRKT_RKT0_RKT1_"
 "_ZNK4Rcpp14not_compatible4whatEv"
 "_ZNK4Rcpp15PreserveStorageINS_12RObject_ImplIS0_EEEcvP7SEXPRECEv"
 "_ZNK4Rcpp15PreserveStorageINS_13Function_ImplIS0_EEE5get__Ev"
 "_ZNK4Rcpp6ShieldIP7SEXPRECEcvS2_Ev"
 "_ZNK4Rcpp9DimensioncvP7SEXPRECEv"
 "_ZNK4Rcpp9exception4whatEv"
 "_ZNK9__gnu_cxx13new_allocatorIiE8max_sizeEv"
 "_ZNK9__gnu_cxx13new_allocatorIN4arma22arma_sort_index_packetIdEEE8max_sizeEv"
 "_ZNK9__gnu_cxx17__normal_iteratorIPKiSt6vectorIiSaIiEEE4baseEv"
 "_ZNK9__gnu_cxx17__normal_iteratorIPKiSt6vectorIiSaIiEEEixEx"
 "_ZNK9__gnu_cxx17__normal_iteratorIPN4arma22arma_sort_index_packetIdEESt6vectorIS3_SaIS3_EEE4baseEv"
 "_ZNK9__gnu_cxx17__normal_iteratorIPN4arma22arma_sort_index_packetIdEESt6vectorIS3_SaIS3_EEEdeEv"
 "_ZNK9__gnu_cxx17__normal_iteratorIPN4arma22arma_sort_index_packetIdEESt6vectorIS3_SaIS3_EEEmiEx"
 "_ZNK9__gnu_cxx17__normal_iteratorIPN4arma22arma_sort_index_packetIdEESt6vectorIS3_SaIS3_EEEplEx"
 "_ZNKSt16initializer_listIjE4sizeEv"
 "_ZNKSt16initializer_listIjE5beginEv"
 "_ZNKSt6chrono10time_pointINS_3_V212system_clockENS_8durationIxSt5ratioILx1ELx1000000000EEEEE16time_since_epochEv"
 "_ZNKSt6chrono8durationIdSt5ratioILx1ELx1EEE5countEv"
 "_ZNKSt6chrono8durationIxSt5ratioILx1ELx1000000000EEE5countEv"
 "_ZNKSt6vectorIiSaIiEE3endEv"
 "_ZNKSt6vectorIiSaIiEE5beginEv"
 "_ZNKSt8ios_base5flagsEv"
 "_ZNKSt8ios_base5widthEv"
 "_ZNKSt8ios_base9precisionEv"
 "_ZNSaIiEC1Ev"
 "_ZNSaIiEC2ERKS_"
 "_ZNSaIiED1Ev"
 "_ZNSaIiED2Ev"
 "_ZNSaIN4arma22arma_sort_index_packetIdEEEC1Ev"
 "_ZNSaIN4arma22arma_sort_index_packetIdEEEC2ERKS2_"
 "_ZNSaIN4arma22arma_sort_index_packetIdEEED1Ev"
 "_ZNSaIN4arma22arma_sort_index_packetIdEEED2Ev"
 "_ZNSt10_Iter_baseIN9__gnu_cxx17__normal_iteratorIPN4arma22arma_sort_index_packetIdEESt6vectorIS4_SaIS4_EEEELb0EE7_S_baseES9_"
 "_ZNSt10_Iter_baseIN9__gnu_cxx17__normal_iteratorIPN4arma22arma_sort_index_packetIdEESt6vectorIS4_SaIS4_EEEELb1EE7_S_baseES9_"
 "_ZNSt10_Iter_baseIPiLb0EE7_S_baseES0_"
 "_ZNSt10_Iter_baseIPN4arma22arma_sort_index_packetIdEELb0EE7_S_baseES3_"
 "_ZNSt11char_traitsIcE12to_char_typeERKi"
 "_ZNSt11char_traitsIcE3eofEv"
 "_ZNSt12_Destroy_auxILb1EE9__destroyIPiEEvT_S3_"
 "_ZNSt12_Destroy_auxILb1EE9__destroyIPN4arma22arma_sort_index_packetIdEEEEvT_S6_"
 "_ZNSt12_Vector_baseIiSaIiEE11_M_allocateEy"
 "_ZNSt12_Vector_baseIiSaIiEE12_Vector_implC1ERKS0_"
 "_ZNSt12_Vector_baseIiSaIiEE12_Vector_implD1Ev"
 "_ZNSt12_Vector_baseIiSaIiEE13_M_deallocateEPiy"
 "_ZNSt12_Vector_baseIiSaIiEE17_M_create_storageEy"
 "_ZNSt12_Vector_baseIiSaIiEE19_M_get_Tp_allocatorEv"
 "_ZNSt12_Vector_baseIiSaIiEEC2EyRKS0_"
 "_ZNSt12_Vector_baseIiSaIiEED2Ev"
 "_ZNSt12_Vector_baseIN4arma22arma_sort_index_packetIdEESaIS2_EE11_M_allocateEy"
 "_ZNSt12_Vector_baseIN4arma22arma_sort_index_packetIdEESaIS2_EE12_Vector_implC1ERKS3_"
 "_ZNSt12_Vector_baseIN4arma22arma_sort_index_packetIdEESaIS2_EE12_Vector_implD1Ev"
 "_ZNSt12_Vector_baseIN4arma22arma_sort_index_packetIdEESaIS2_EE13_M_deallocateEPS2_y"
 "_ZNSt12_Vector_baseIN4arma22arma_sort_index_packetIdEESaIS2_EE17_M_create_storageEy"
 "_ZNSt12_Vector_baseIN4arma22arma_sort_index_packetIdEESaIS2_EE19_M_get_Tp_allocatorEv"
 "_ZNSt12_Vector_baseIN4arma22arma_sort_index_packetIdEESaIS2_EEC2EyRKS3_"
 "_ZNSt12_Vector_baseIN4arma22arma_sort_index_packetIdEESaIS2_EED2Ev"
 "_ZNSt14numeric_limitsIdE8infinityEv"
 "_ZNSt14numeric_limitsIdE9quiet_NaNEv"
 "_ZNSt14numeric_limitsIyE3maxEv"
 "_ZNSt16allocator_traitsISaIiEE10deallocateERS0_Piy"
 "_ZNSt16allocator_traitsISaIiEE8allocateERS0_y"
 "_ZNSt16allocator_traitsISaIN4arma22arma_sort_index_packetIdEEEE10deallocateERS3_PS2_y"
 "_ZNSt16allocator_traitsISaIN4arma22arma_sort_index_packetIdEEEE8allocateERS3_y"
 "_ZNSt20__copy_move_backwardILb1ELb1ESt26random_access_iterator_tagE13__copy_move_bIN4arma22arma_sort_index_packetIdEEEEPT_PKS6_S9_S7_"
 "_ZNSt27__uninitialized_default_n_1ILb1EE18__uninit_default_nIPiyEEvT_T0_"
 "_ZNSt27__uninitialized_default_n_1ILb1EE18__uninit_default_nIPN4arma22arma_sort_index_packetIdEEyEEvT_T0_"
 "_ZNSt6chrono13duration_castINS_8durationIdSt5ratioILx1ELx1EEEExS2_ILx1ELx1000000000EEEENSt9enable_ifIXsrNS_13__is_durationIT_EE5valueES8_E4typeERKNS1_IT0_T1_EE"
 "_ZNSt6chrono20__duration_cast_implINS_8durationIdSt5ratioILx1ELx1EEEES2_ILx1ELx1000000000EEdLb1ELb0EE6__castIxS5_EES4_RKNS1_IT_T0_EE"
 "_ZNSt6chrono8durationIdSt5ratioILx1ELx1EEEC1IdvEERKT_"
 "_ZNSt6chrono8durationIxSt5ratioILx1ELx1000000000EEEC1IxvEERKT_"
 "_ZNSt6chronomiINS_3_V212system_clockENS_8durationIxSt5ratioILx1ELx1000000000EEEES6_EENSt11common_typeIIT0_T1_EE4typeERKNS_10time_pointIT_S8_EERKNSC_ISD_S9_EE"
 "_ZNSt6chronomiIxSt5ratioILx1ELx1000000000EExS2_EENSt11common_typeIINS_8durationIT_T0_EENS4_IT1_T2_EEEE4typeERKS7_RKSA_"
 "_ZNSt6vectorIiSaIiEE21_M_default_initializeEy"
 "_ZNSt6vectorIiSaIiEEC1EyRKS0_"
 "_ZNSt6vectorIiSaIiEED1Ev"
 "_ZNSt6vectorIiSaIiEEixEy"
 "_ZNSt6vectorIN4arma22arma_sort_index_packetIdEESaIS2_EE21_M_default_initializeEy"
 "_ZNSt6vectorIN4arma22arma_sort_index_packetIdEESaIS2_EE3endEv"
 "_ZNSt6vectorIN4arma22arma_sort_index_packetIdEESaIS2_EE5beginEv"
 "_ZNSt6vectorIN4arma22arma_sort_index_packetIdEESaIS2_EEC1EyRKS3_"
 "_ZNSt6vectorIN4arma22arma_sort_index_packetIdEESaIS2_EED1Ev"
 "_ZNSt6vectorIN4arma22arma_sort_index_packetIdEESaIS2_EEixEy"
 "_ZNSt8ios_base4setfESt13_Ios_Fmtflags"
 "_ZNSt8ios_base4setfESt13_Ios_FmtflagsS0_"
 "_ZNSt8ios_base5flagsESt13_Ios_Fmtflags"
 "_ZNSt8ios_base5widthEx"
 "_ZNSt8ios_base6unsetfESt13_Ios_Fmtflags"
 "_ZNSt8ios_base9precisionEx"
 "_ZNSt9bad_allocC1Ev"
 "_ZNSt9exceptionC2Ev"
 "_ZSt10__distanceIN9__gnu_cxx17__normal_iteratorIPKiSt6vectorIiSaIiEEEEENSt15iterator_traitsIT_E15difference_typeES9_S9_St26random_access_iterator_tag"
 "_ZSt10__distanceIPKdENSt15iterator_traitsIT_E15difference_typeES3_S3_St26random_access_iterator_tag"
 "_ZSt10__fill_n_aIPiyiEN9__gnu_cxx11__enable_ifIXsrSt11__is_scalarIT1_E7__valueET_E6__typeES6_T0_RKS4_"
 "_ZSt10__fill_n_aIPN4arma22arma_sort_index_packetIdEEyS2_EN9__gnu_cxx11__enable_ifIXntsrSt11__is_scalarIT1_E7__valueET_E6__typeES9_T0_RKS7_"
 "_ZSt10__pop_heapIN9__gnu_cxx17__normal_iteratorIPN4arma22arma_sort_index_packetIdEESt6vectorIS4_SaIS4_EEEENS0_5__ops15_Iter_comp_iterINS2_29arma_sort_index_helper_ascendIdEEEEEvT_SF_SF_T0_"
 "_ZSt10__pop_heapIN9__gnu_cxx17__normal_iteratorIPN4arma22arma_sort_index_packetIdEESt6vectorIS4_SaIS4_EEEENS0_5__ops15_Iter_comp_iterINS2_30arma_sort_index_helper_descendIdEEEEEvT_SF_SF_T0_"
 "_ZSt11__make_heapIN9__gnu_cxx17__normal_iteratorIPN4arma22arma_sort_index_packetIdEESt6vectorIS4_SaIS4_EEEENS0_5__ops15_Iter_comp_iterINS2_29arma_sort_index_helper_ascendIdEEEEEvT_SF_T0_"
 "_ZSt11__make_heapIN9__gnu_cxx17__normal_iteratorIPN4arma22arma_sort_index_packetIdEESt6vectorIS4_SaIS4_EEEENS0_5__ops15_Iter_comp_iterINS2_30arma_sort_index_helper_descendIdEEEEEvT_SF_T0_"
 "_ZSt11__push_heapIN9__gnu_cxx17__normal_iteratorIPN4arma22arma_sort_index_packetIdEESt6vectorIS4_SaIS4_EEEExS4_NS0_5__ops14_Iter_comp_valINS2_29arma_sort_index_helper_ascendIdEEEEEvT_T0_SG_T1_T2_"
 "_ZSt11__push_heapIN9__gnu_cxx17__normal_iteratorIPN4arma22arma_sort_index_packetIdEESt6vectorIS4_SaIS4_EEEExS4_NS0_5__ops14_Iter_comp_valINS2_30arma_sort_index_helper_descendIdEEEEEvT_T0_SG_T1_T2_"
 "_ZSt11__sort_heapIN9__gnu_cxx17__normal_iteratorIPN4arma22arma_sort_index_packetIdEESt6vectorIS4_SaIS4_EEEENS0_5__ops15_Iter_comp_iterINS2_29arma_sort_index_helper_ascendIdEEEEEvT_SF_T0_"
 "_ZSt11__sort_heapIN9__gnu_cxx17__normal_iteratorIPN4arma22arma_sort_index_packetIdEESt6vectorIS4_SaIS4_EEEENS0_5__ops15_Iter_comp_iterINS2_30arma_sort_index_helper_descendIdEEEEEvT_SF_T0_"
 "_ZSt12__miter_baseIN9__gnu_cxx17__normal_iteratorIPN4arma22arma_sort_index_packetIdEESt6vectorIS4_SaIS4_EEEEENSt11_Miter_baseIT_E13iterator_typeESB_"
 "_ZSt12__niter_baseIN9__gnu_cxx17__normal_iteratorIPN4arma22arma_sort_index_packetIdEESt6vectorIS4_SaIS4_EEEEENSt11_Niter_baseIT_E13iterator_typeESB_"
 "_ZSt12__niter_baseIPiENSt11_Niter_baseIT_E13iterator_typeES2_"
 "_ZSt12__niter_baseIPN4arma22arma_sort_index_packetIdEEENSt11_Niter_baseIT_E13iterator_typeES5_"
 "_ZSt13__adjust_heapIN9__gnu_cxx17__normal_iteratorIPN4arma22arma_sort_index_packetIdEESt6vectorIS4_SaIS4_EEEExS4_NS0_5__ops15_Iter_comp_iterINS2_29arma_sort_index_helper_ascendIdEEEEEvT_T0_SG_T1_T2_"
 "_ZSt13__adjust_heapIN9__gnu_cxx17__normal_iteratorIPN4arma22arma_sort_index_packetIdEESt6vectorIS4_SaIS4_EEEExS4_NS0_5__ops15_Iter_comp_iterINS2_30arma_sort_index_helper_descendIdEEEEEvT_T0_SG_T1_T2_"
 "_ZSt13__heap_selectIN9__gnu_cxx17__normal_iteratorIPN4arma22arma_sort_index_packetIdEESt6vectorIS4_SaIS4_EEEENS0_5__ops15_Iter_comp_iterINS2_29arma_sort_index_helper_ascendIdEEEEEvT_SF_SF_T0_"
 "_ZSt13__heap_selectIN9__gnu_cxx17__normal_iteratorIPN4arma22arma_sort_index_packetIdEESt6vectorIS4_SaIS4_EEEENS0_5__ops15_Iter_comp_iterINS2_30arma_sort_index_helper_descendIdEEEEEvT_SF_SF_T0_"
 "_ZSt13move_backwardIN9__gnu_cxx17__normal_iteratorIPN4arma22arma_sort_index_packetIdEESt6vectorIS4_SaIS4_EEEES9_ET0_T_SB_SA_"
 "_ZSt14__partial_sortIN9__gnu_cxx17__normal_iteratorIPN4arma22arma_sort_index_packetIdEESt6vectorIS4_SaIS4_EEEENS0_5__ops15_Iter_comp_iterINS2_29arma_sort_index_helper_ascendIdEEEEEvT_SF_SF_T0_"
 "_ZSt14__partial_sortIN9__gnu_cxx17__normal_iteratorIPN4arma22arma_sort_index_packetIdEESt6vectorIS4_SaIS4_EEEENS0_5__ops15_Iter_comp_iterINS2_30arma_sort_index_helper_descendIdEEEEEvT_SF_SF_T0_"
 "_ZSt16__insertion_sortIN9__gnu_cxx17__normal_iteratorIPN4arma22arma_sort_index_packetIdEESt6vectorIS4_SaIS4_EEEENS0_5__ops15_Iter_comp_iterINS2_29arma_sort_index_helper_ascendIdEEEEEvT_SF_T0_"
 "_ZSt16__insertion_sortIN9__gnu_cxx17__normal_iteratorIPN4arma22arma_sort_index_packetIdEESt6vectorIS4_SaIS4_EEEENS0_5__ops15_Iter_comp_iterINS2_30arma_sort_index_helper_descendIdEEEEEvT_SF_T0_"
 "_ZSt16__introsort_loopIN9__gnu_cxx17__normal_iteratorIPN4arma22arma_sort_index_packetIdEESt6vectorIS4_SaIS4_EEEExNS0_5__ops15_Iter_comp_iterINS2_29arma_sort_index_helper_ascendIdEEEEEvT_SF_T0_T1_"
 "_ZSt16__introsort_loopIN9__gnu_cxx17__normal_iteratorIPN4arma22arma_sort_index_packetIdEESt6vectorIS4_SaIS4_EEEExNS0_5__ops15_Iter_comp_iterINS2_30arma_sort_index_helper_descendIdEEEEEvT_SF_T0_T1_"
 "_ZSt19__iterator_categoryIN9__gnu_cxx17__normal_iteratorIPKiSt6vectorIiSaIiEEEEENSt15iterator_traitsIT_E17iterator_categoryERKS9_"
 "_ZSt19__iterator_categoryIPKdENSt15iterator_traitsIT_E17iterator_categoryERKS3_"
 "_ZSt21__unguarded_partitionIN9__gnu_cxx17__normal_iteratorIPN4arma22arma_sort_index_packetIdEESt6vectorIS4_SaIS4_EEEENS0_5__ops15_Iter_comp_iterINS2_29arma_sort_index_helper_ascendIdEEEEET_SF_SF_SF_T0_"
 "_ZSt21__unguarded_partitionIN9__gnu_cxx17__normal_iteratorIPN4arma22arma_sort_index_packetIdEESt6vectorIS4_SaIS4_EEEENS0_5__ops15_Iter_comp_iterINS2_30arma_sort_index_helper_descendIdEEEEET_SF_SF_SF_T0_"
 "_ZSt22__copy_move_backward_aILb1EPN4arma22arma_sort_index_packetIdEES3_ET1_T0_S5_S4_"
 "_ZSt22__final_insertion_sortIN9__gnu_cxx17__normal_iteratorIPN4arma22arma_sort_index_packetIdEESt6vectorIS4_SaIS4_EEEENS0_5__ops15_Iter_comp_iterINS2_29arma_sort_index_helper_ascendIdEEEEEvT_SF_T0_"
 "_ZSt22__final_insertion_sortIN9__gnu_cxx17__normal_iteratorIPN4arma22arma_sort_index_packetIdEESt6vectorIS4_SaIS4_EEEENS0_5__ops15_Iter_comp_iterINS2_30arma_sort_index_helper_descendIdEEEEEvT_SF_T0_"
 "_ZSt22__move_median_to_firstIN9__gnu_cxx17__normal_iteratorIPN4arma22arma_sort_index_packetIdEESt6vectorIS4_SaIS4_EEEENS0_5__ops15_Iter_comp_iterINS2_29arma_sort_index_helper_ascendIdEEEEEvT_SF_SF_SF_T0_"
 "_ZSt22__move_median_to_firstIN9__gnu_cxx17__normal_iteratorIPN4arma22arma_sort_index_packetIdEESt6vectorIS4_SaIS4_EEEENS0_5__ops15_Iter_comp_iterINS2_30arma_sort_index_helper_descendIdEEEEEvT_SF_SF_SF_T0_"
 "_ZSt23__copy_move_backward_a2ILb1EN9__gnu_cxx17__normal_iteratorIPN4arma22arma_sort_index_packetIdEESt6vectorIS4_SaIS4_EEEES9_ET1_T0_SB_SA_"
 "_ZSt25__unguarded_linear_insertIN9__gnu_cxx17__normal_iteratorIPN4arma22arma_sort_index_packetIdEESt6vectorIS4_SaIS4_EEEENS0_5__ops14_Val_comp_iterINS2_29arma_sort_index_helper_ascendIdEEEEEvT_T0_"
 "_ZSt25__unguarded_linear_insertIN9__gnu_cxx17__normal_iteratorIPN4arma22arma_sort_index_packetIdEESt6vectorIS4_SaIS4_EEEENS0_5__ops14_Val_comp_iterINS2_30arma_sort_index_helper_descendIdEEEEEvT_T0_"
 "_ZSt25__uninitialized_default_nIPiyEvT_T0_"
 "_ZSt25__uninitialized_default_nIPN4arma22arma_sort_index_packetIdEEyEvT_T0_"
 "_ZSt26__unguarded_insertion_sortIN9__gnu_cxx17__normal_iteratorIPN4arma22arma_sort_index_packetIdEESt6vectorIS4_SaIS4_EEEENS0_5__ops15_Iter_comp_iterINS2_29arma_sort_index_helper_ascendIdEEEEEvT_SF_T0_"
 "_ZSt26__unguarded_insertion_sortIN9__gnu_cxx17__normal_iteratorIPN4arma22arma_sort_index_packetIdEESt6vectorIS4_SaIS4_EEEENS0_5__ops15_Iter_comp_iterINS2_30arma_sort_index_helper_descendIdEEEEEvT_SF_T0_"
 "_ZSt27__unguarded_partition_pivotIN9__gnu_cxx17__normal_iteratorIPN4arma22arma_sort_index_packetIdEESt6vectorIS4_SaIS4_EEEENS0_5__ops15_Iter_comp_iterINS2_29arma_sort_index_helper_ascendIdEEEEET_SF_SF_T0_"
 "_ZSt27__unguarded_partition_pivotIN9__gnu_cxx17__normal_iteratorIPN4arma22arma_sort_index_packetIdEESt6vectorIS4_SaIS4_EEEENS0_5__ops15_Iter_comp_iterINS2_30arma_sort_index_helper_descendIdEEEEET_SF_SF_T0_"
 "_ZSt27__uninitialized_default_n_aIPiyiEvT_T0_RSaIT1_E"
 "_ZSt27__uninitialized_default_n_aIPN4arma22arma_sort_index_packetIdEEyS2_EvT_T0_RSaIT1_E"
 "_ZSt3absd"
 "_ZSt3maxIdERKT_S2_S2_"
 "_ZSt3minIjERKT_S2_S2_"
 "_ZSt4__lgx"
 "_ZSt4moveIRdEONSt16remove_referenceIT_E4typeEOS2_"
 "_ZSt4moveIRN4arma22arma_sort_index_packetIdEEEONSt16remove_referenceIT_E4typeEOS5_"
 "_ZSt4moveIRSsEONSt16remove_referenceIT_E4typeEOS2_"
 "_ZSt4sortIN9__gnu_cxx17__normal_iteratorIPN4arma22arma_sort_index_packetIdEESt6vectorIS4_SaIS4_EEEENS2_29arma_sort_index_helper_ascendIdEEEvT_SC_T0_"
 "_ZSt4sortIN9__gnu_cxx17__normal_iteratorIPN4arma22arma_sort_index_packetIdEESt6vectorIS4_SaIS4_EEEENS2_30arma_sort_index_helper_descendIdEEEvT_SC_T0_"
 "_ZSt4swapIdEvRT_S1_"
 "_ZSt4swapIN4arma22arma_sort_index_packetIdEEEvRT_S4_"
 "_ZSt5isinfd"
 "_ZSt5isnand"
 "_ZSt6__sortIN9__gnu_cxx17__normal_iteratorIPN4arma22arma_sort_index_packetIdEESt6vectorIS4_SaIS4_EEEENS0_5__ops15_Iter_comp_iterINS2_29arma_sort_index_helper_ascendIdEEEEEvT_SF_T0_"
 "_ZSt6__sortIN9__gnu_cxx17__normal_iteratorIPN4arma22arma_sort_index_packetIdEESt6vectorIS4_SaIS4_EEEENS0_5__ops15_Iter_comp_iterINS2_30arma_sort_index_helper_descendIdEEEEEvT_SF_T0_"
 "_ZSt6fill_nIPiyiET_S1_T0_RKT1_"
 "_ZSt6fill_nIPN4arma22arma_sort_index_packetIdEEyS2_ET_S4_T0_RKT1_"
 "_ZSt7forwardIPKcEOT_RNSt16remove_referenceIS2_E4typeE"
 "_ZSt8_DestroyIPiEvT_S1_"
 "_ZSt8_DestroyIPiiEvT_S1_RSaIT0_E"
 "_ZSt8_DestroyIPN4arma22arma_sort_index_packetIdEEEvT_S4_"
 "_ZSt8_DestroyIPN4arma22arma_sort_index_packetIdEES2_EvT_S4_RSaIT0_E"
 "_ZSt8distanceIN9__gnu_cxx17__normal_iteratorIPKiSt6vectorIiSaIiEEEEENSt15iterator_traitsIT_E15difference_typeES9_S9_"
 "_ZSt8distanceIPKdENSt15iterator_traitsIT_E15difference_typeES3_S3_"
 "_ZSt8isfinited"
 "_ZSt9iter_swapIN9__gnu_cxx17__normal_iteratorIPN4arma22arma_sort_index_packetIdEESt6vectorIS4_SaIS4_EEEES9_EvT_T0_"
 "_ZStaNRSt13_Ios_FmtflagsS_"
 "_ZStanSt13_Ios_FmtflagsS_"
 "_ZStcoSt13_Ios_Fmtflags"
 "_ZStoRRSt13_Ios_FmtflagsS_"
 "_ZStorSt13_Ios_FmtflagsS_"
 "_ZStplIcSt11char_traitsIcESaIcEESbIT_T0_T1_EOS6_PKS3_"
 "_ZStplIcSt11char_traitsIcESaIcEESbIT_T0_T1_EOS6_RKS6_"
 "_ZTCN4Rcpp8RostreamILb0EEE0_So"
 "_ZTCN4Rcpp8RostreamILb1EEE0_So"
 "_ZTIN4Rcpp10eval_errorE"
 "_ZTIN4Rcpp10RstreambufILb0EEE"
 "_ZTIN4Rcpp10RstreambufILb1EEE"
 "_ZTIN4Rcpp14not_compatibleE"
 "_ZTIN4Rcpp8internal20InterruptedExceptionE"
 "_ZTIN4Rcpp8RostreamILb0EEE"
 "_ZTIN4Rcpp8RostreamILb1EEE"
 "_ZTIN4Rcpp9exceptionE"
 "_ZTISt11logic_error"
 "_ZTISt13runtime_error"
 "_ZTISt9bad_alloc"
 "_ZTISt9exception"
 "_ZTSN4Rcpp10eval_errorE"
 "_ZTSN4Rcpp10RstreambufILb0EEE"
 "_ZTSN4Rcpp10RstreambufILb1EEE"
 "_ZTSN4Rcpp14not_compatibleE"
 "_ZTSN4Rcpp8internal20InterruptedExceptionE"
 "_ZTSN4Rcpp8RostreamILb0EEE"
 "_ZTSN4Rcpp8RostreamILb1EEE"
 "_ZTSN4Rcpp9exceptionE"
 "_ZTSSt11logic_error"
 "_ZTSSt13runtime_error"
 "_ZTSSt9bad_alloc"
 "_ZTSSt9exception"
 "_ZTTN4Rcpp8RostreamILb0EEE"
 "_ZTTN4Rcpp8RostreamILb1EEE"
 "_ZTv0_n24_N4Rcpp8RostreamILb0EED0Ev"
 "_ZTv0_n24_N4Rcpp8RostreamILb0EED1Ev"
 "_ZTv0_n24_N4Rcpp8RostreamILb1EED0Ev"
 "_ZTv0_n24_N4Rcpp8RostreamILb1EED1Ev"
 "_ZTVN4Rcpp10eval_errorE"
 "_ZTVN4Rcpp10RstreambufILb0EEE"
 "_ZTVN4Rcpp10RstreambufILb1EEE"
 "_ZTVN4Rcpp14not_compatibleE"
 "_ZTVN4Rcpp8RostreamILb0EEE"
 "_ZTVN4Rcpp8RostreamILb1EEE"
 "_ZTVN4Rcpp9exceptionE"
 "_ZZ11stack_tracePKciE3fun"
 "_ZZ20rcpp_set_stack_traceP7SEXPRECE3fun"
 "_ZZ7dataptrP7SEXPRECE3fun"
 "_ZZN4arma16arma_cerr_streamIcEERSoPSoE11cerr_stream"
 "current"
 "start"
 "timers"
 "_ZGVN4arma5DatumIdE3nanE"
 "_ZGVN4arma5DatumIiE3nanE"
 "_ZN4arma10solve_opts12opts_no_bandC1Ev"
 "_ZN4arma10solve_opts13opts_no_sympdC1Ev"
 "_ZN4arma10solve_opts14opts_no_approxC1Ev"
 "_ZN4arma10solve_opts15opts_allow_uglyC1Ev"
 "_ZN4arma10solve_opts16opts_equilibrateC1Ev"
 "_ZN4arma10solve_opts17opts_likely_sympdC1Ev"
 "_ZN4arma10solve_opts4optsC2Ej"
 "_ZN4arma10solve_opts9opts_fastC1Ev"
 "_ZN4arma10solve_opts9opts_noneC1Ev"
 "_ZN4arma10solve_opts9opts_trilC1Ev"
 "_ZN4arma10solve_opts9opts_triuC1Ev"
 "_ZN4arma13gmm_dist_euclC1Ev"
 "_ZN4arma13gmm_dist_mahaC1Ev"
 "_ZN4arma13gmm_dist_modeC2Ej"
 "_ZN4arma13gmm_dist_probC1Ev"
 "_ZN4arma13gmm_seed_modeC2Ej"
 "_ZN4arma15get_cerr_streamEv"
 "_ZN4arma16arma_cerr_streamIcEERSoPSo"
 "_ZN4arma22gmm_seed_keep_existingC1Ev"
 "_ZN4arma22gmm_seed_random_spreadC1Ev"
 "_ZN4arma22gmm_seed_random_subsetC1Ev"
 "_ZN4arma22gmm_seed_static_spreadC1Ev"
 "_ZN4arma22gmm_seed_static_subsetC1Ev"
 "_ZN4arma4fill10fill_classINS0_10fill_randnEEC1Ev"
 "_ZN4arma4fill10fill_classINS0_10fill_randuEEC1Ev"
 "_ZN4arma4fill10fill_classINS0_10fill_zerosEEC1Ev"
 "_ZN4arma4fill10fill_classINS0_8fill_eyeEEC1Ev"
 "_ZN4arma4fill10fill_classINS0_9fill_noneEEC1Ev"
 "_ZN4arma4fill10fill_classINS0_9fill_onesEEC1Ev"
 "_ZN4arma4priv12Datum_helper3nanIdEENS_14arma_real_onlyIT_E6resultEPS6_"
 "_ZN4arma4priv12Datum_helper3nanIiEENS_18arma_integral_onlyIT_E6resultEPS6_"
 "_ZN4arma5DatumIdE3nanE"
 "_ZN4arma5DatumIiE3nanE"
 "_ZN4arma9hdf5_opts10opts_transC1Ev"
 "_ZN4arma9hdf5_opts11opts_appendC1Ev"
 "_ZN4arma9hdf5_opts12opts_replaceC1Ev"
 "_ZN4arma9hdf5_opts4optsC2Ej"
 "_ZN4arma9hdf5_opts9opts_noneC1Ev"
 "_ZN4Rcpp10RstreambufILb0EE4syncEv"
 "_ZN4Rcpp10RstreambufILb0EE6xsputnEPKcx"
 "_ZN4Rcpp10RstreambufILb0EE8overflowEi"
 "_ZN4Rcpp10RstreambufILb0EEC1Ev"
 "_ZN4Rcpp10RstreambufILb0EED0Ev"
 "_ZN4Rcpp10RstreambufILb0EED1Ev"
 "_ZN4Rcpp10RstreambufILb1EE4syncEv"
 "_ZN4Rcpp10RstreambufILb1EE6xsputnEPKcx"
 "_ZN4Rcpp10RstreambufILb1EE8overflowEi"
 "_ZN4Rcpp10RstreambufILb1EEC1Ev"
 "_ZN4Rcpp10RstreambufILb1EED0Ev"
 "_ZN4Rcpp10RstreambufILb1EED1Ev"
 "_ZN4Rcpp8internal16NamedPlaceHolderC1Ev"
 "_ZN4Rcpp8internal16NamedPlaceHolderD1Ev"
 "_ZN4Rcpp8RostreamILb0EEC1Ev"
 "_ZN4Rcpp8RostreamILb0EED0Ev"
 "_ZN4Rcpp8RostreamILb0EED1Ev"
 "_ZN4Rcpp8RostreamILb1EEC1Ev"
 "_ZN4Rcpp8RostreamILb1EED0Ev"
 "_ZN4Rcpp8RostreamILb1EED1Ev"
 "_ZNSt11char_traitsIcE12to_char_typeERKi"
 "_ZNSt11char_traitsIcE3eofEv"
 "_ZNSt14numeric_limitsIdE9quiet_NaNEv"
 "_ZNSt9bad_allocC1Ev"
 "_ZNSt9exceptionC2Ev"
 "_ZTCN4Rcpp8RostreamILb0EEE0_So"
 "_ZTCN4Rcpp8RostreamILb1EEE0_So"
 "_ZTIN4Rcpp10RstreambufILb0EEE"
 "_ZTIN4Rcpp10RstreambufILb1EEE"
 "_ZTIN4Rcpp8RostreamILb0EEE"
 "_ZTIN4Rcpp8RostreamILb1EEE"
 "_ZTISt11logic_error"
 "_ZTISt9bad_alloc"
 "_ZTISt9exception"
 "_ZTSN4Rcpp10RstreambufILb0EEE"
 "_ZTSN4Rcpp10RstreambufILb1EEE"
 "_ZTSN4Rcpp8RostreamILb0EEE"
 "_ZTSN4Rcpp8RostreamILb1EEE"
 "_ZTSSt11logic_error"
 "_ZTSSt9bad_alloc"
 "_ZTSSt9exception"
 "_ZTTN4Rcpp8RostreamILb0EEE"
 "_ZTTN4Rcpp8RostreamILb1EEE"
 "_ZTv0_n24_N4Rcpp8RostreamILb0EED0Ev"
 "_ZTv0_n24_N4Rcpp8RostreamILb0EED1Ev"
 "_ZTv0_n24_N4Rcpp8RostreamILb1EED0Ev"
 "_ZTv0_n24_N4Rcpp8RostreamILb1EED1Ev"
 "_ZTVN4Rcpp10RstreambufILb0EEE"
 "_ZTVN4Rcpp10RstreambufILb1EEE"
 "_ZTVN4Rcpp8RostreamILb0EEE"
 "_ZTVN4Rcpp8RostreamILb1EEE"
 "_ZZN4arma16arma_cerr_streamIcEERSoPSoE11cerr_stream"
